(dp0
S'renewables_new_capacity'
p1
ccopy_reg
_reconstructor
p2
(cpandas.core.frame
DataFrame
p3
c__builtin__
object
p4
Ntp5
Rp6
(dp7
S'_metadata'
p8
(lp9
sS'_typ'
p10
S'dataframe'
p11
sS'_data'
p12
g2
(cpandas.core.internals
BlockManager
p13
g4
Ntp14
Rp15
((lp16
cpandas.indexes.base
_new_Index
p17
(cpandas.indexes.base
Index
p18
(dp19
S'data'
p20
cnumpy.core.multiarray
_reconstruct
p21
(cnumpy
ndarray
p22
(I0
tp23
S'b'
p24
tp25
Rp26
(I1
(L7L
tp27
cnumpy
dtype
p28
(S'O8'
p29
I0
I1
tp30
Rp31
(I3
S'|'
p32
NNNI-1
I-1
I63
tp33
bI00
(lp34
VAge
p35
aVExisting Capacity (kW)
p36
aVLifetime
p37
aVNew Capacity (kW)
p38
aVSize of PV/Solar-Thermal (m^2)
p39
aVTechnology
p40
aVTotal Capacity (kW)
p41
atp42
bsS'name'
p43
Nstp44
Rp45
ag17
(cpandas.indexes.numeric
Int64Index
p46
(dp47
g20
g21
(g22
(I0
tp48
g24
tp49
Rp50
(I1
(L1L
tp51
g28
(S'i8'
p52
I0
I1
tp53
Rp54
(I3
S'<'
p55
NNNI-1
I-1
I0
tp56
bI00
S'\x00\x00\x00\x00\x00\x00\x00\x00'
p57
tp58
bsg43
Nstp59
Rp60
a(lp61
g21
(g22
(I0
tp62
g24
tp63
Rp64
(I1
(L7L
L1L
tp65
g31
I00
(lp66
V""
p67
aV0
p68
aV30
p69
aV2427
p70
aV16215
p71
aV"Photovoltaic (kW)  peak power under test conditions"
p72
aV2427
p73
atp74
ba(lp75
g17
(g18
(dp76
g20
g21
(g22
(I0
tp77
g24
tp78
Rp79
(I1
(L7L
tp80
g31
I00
(lp81
g35
ag36
ag37
ag38
ag39
ag40
ag41
atp82
bsg43
Nstp83
Rp84
a(dp85
S'0.14.1'
p86
(dp87
S'axes'
p88
g16
sS'blocks'
p89
(lp90
(dp91
S'mgr_locs'
p92
c__builtin__
slice
p93
(I0
I7
L1L
tp94
Rp95
sS'values'
p96
g64
sasstp97
bsbsS'purchase_from_utility'
p98
(dp99
S'week'
p100
g2
(g3
g4
Ntp101
Rp102
(dp103
g8
g9
sg10
g11
sg12
g2
(g13
g4
Ntp104
Rp105
((lp106
g17
(g18
(dp107
g20
g21
(g22
(I0
tp108
g24
tp109
Rp110
(I1
(L25L
tp111
g31
I00
(lp112
I1
aI2
aI3
aI4
aI5
aI6
aI7
aI8
aI9
aI10
aI11
aI12
aI13
aI14
aI15
aI16
aI17
aI18
aI19
aI20
aI21
aI22
aI23
aI24
aS'month'
p113
atp114
bsg43
Nstp115
Rp116
ag17
(g46
(dp117
g20
g21
(g22
(I0
tp118
g24
tp119
Rp120
(I1
(L12L
tp121
g54
I00
S'\x00\x00\x00\x00\x00\x00\x00\x00\x01\x00\x00\x00\x00\x00\x00\x00\x02\x00\x00\x00\x00\x00\x00\x00\x03\x00\x00\x00\x00\x00\x00\x00\x04\x00\x00\x00\x00\x00\x00\x00\x05\x00\x00\x00\x00\x00\x00\x00\x06\x00\x00\x00\x00\x00\x00\x00\x07\x00\x00\x00\x00\x00\x00\x00\x08\x00\x00\x00\x00\x00\x00\x00\t\x00\x00\x00\x00\x00\x00\x00\n\x00\x00\x00\x00\x00\x00\x00\x0b\x00\x00\x00\x00\x00\x00\x00'
p122
tp123
bsg43
Nstp124
Rp125
a(lp126
g21
(g22
(I0
tp127
g24
tp128
Rp129
(I1
(L25L
L12L
tp130
g31
I00
(lp131
V612.67
p132
aV962.34
p133
aV987.88
p134
aV383.23
p135
aV410.91
p136
aV715.44
p137
aV912.40
p138
aV937.84
p139
aV924.96
p140
aV655.28
p141
aV964.23
p142
aV966.20
p143
aV610.24
p144
aV604.69
p145
aV466.05
p146
aV922.16
p147
aV682.46
p148
aV428.68
p149
aV713.10
p150
aV728.23
p151
aV402.82
p152
aV360.73
p153
aV726.24
p154
aV322.09
p155
aV606.91
p156
aV319.50
p157
aV637.53
p158
aV649.33
p159
aV960.86
p160
aV708.78
p161
aV712.70
p162
aV937.84
p163
aV686.27
p164
aV975.10
p165
aV602.28
p166
aV599.42
p167
aV956.68
p168
aV591.93
p169
aV687.64
p170
aV723.73
p171
aV741.48
p172
aV703.58
p173
aV506.77
p174
aV804.57
p175
aV766.36
p176
aV426.01
p177
aV329.38
p178
aV593.54
p179
aV401.60
p180
aV1019.00
p181
aV987.88
p182
aV762.85
p183
aV498.47
p184
aV823.57
p185
aV912.40
p186
aV517.84
p187
aV762.05
p188
aV705.80
p189
aV1031.06
p190
aV686.89
p191
aV684.23
p192
aV671.41
p193
aV987.88
p194
aV922.16
p195
aV884.65
p196
aV950.04
p197
aV912.40
p198
aV937.84
p199
aV924.96
p200
aV975.10
p201
aV420.84
p202
aV406.12
p203
aV1079.13
p204
aV592.19
p205
aV949.26
p206
aV546.68
p207
aV772.45
p208
aV817.13
p209
aV781.13
p210
aV937.84
p211
aV839.77
p212
aV975.10
p213
aV1076.39
p214
aV1083.36
p215
aV1079.13
p216
aV722.73
p217
aV272.45
p218
aV147.48
p219
aV337.84
p220
aV317.28
p221
aV355.89
p222
aV281.00
p223
aV444.73
p224
aV159.79
p225
aV364.23
p226
aV937.97
p227
aV0.74
p228
aV111.35
p229
aV0.00
p230
aV0.00
p231
aV0.00
p232
aV0.00
p233
aV0.00
p234
aV0.00
p235
aV0.00
p236
aV0.00
p237
aV0.00
p238
aV315.90
p239
aV157.28
p240
aV0.00
p241
aV0.00
p242
aV0.00
p243
aV0.00
p244
aV0.00
p245
aV0.00
p246
aV0.00
p247
aV0.00
p248
aV0.00
p249
aV0.00
p250
aV0.00
p251
aV0.00
p252
aV0.00
p253
aV0.00
p254
aV0.00
p255
aV0.00
p256
aV0.00
p257
aV0.00
p258
aV0.00
p259
aV0.00
p260
aV0.00
p261
aV0.00
p262
aV0.00
p263
aV0.00
p264
aV0.00
p265
aV0.00
p266
aV0.00
p267
aV0.00
p268
aV0.00
p269
aV0.00
p270
aV0.00
p271
aV0.00
p272
aV0.00
p273
aV0.00
p274
aV0.00
p275
aV0.00
p276
aV0.00
p277
aV0.00
p278
aV0.00
p279
aV0.00
p280
aV0.00
p281
aV0.00
p282
aV0.00
p283
aV0.00
p284
aV0.00
p285
aV0.00
p286
aV0.00
p287
aV0.00
p288
aV0.00
p289
aV0.00
p290
aV0.00
p291
aV0.00
p292
aV0.00
p293
aV0.00
p294
aV0.00
p295
aV0.00
p296
aV0.00
p297
aV0.00
p298
aV0.00
p299
aV0.00
p300
aV0.00
p301
aV0.00
p302
aV0.00
p303
aV0.00
p304
aV0.00
p305
aV0.00
p306
aV0.00
p307
aV0.00
p308
aV0.00
p309
aV0.00
p310
aV0.00
p311
aV0.00
p312
aV0.00
p313
aV95.31
p314
aV11.33
p315
aV0.00
p316
aV0.00
p317
aV0.00
p318
aV0.00
p319
aV0.00
p320
aV0.00
p321
aV124.23
p322
aV141.59
p323
aV1021.36
p324
aV392.08
p325
aV446.23
p326
aV426.50
p327
aV181.30
p328
aV124.37
p329
aV91.02
p330
aV256.50
p331
aV224.52
p332
aV550.71
p333
aV874.57
p334
aV1090.90
p335
aV1025.40
p336
aV863.83
p337
aV629.01
p338
aV565.20
p339
aV309.62
p340
aV464.34
p341
aV239.44
p342
aV246.98
p343
aV545.36
p344
aV863.65
p345
aV1079.62
p346
aV863.76
p347
aV884.66
p348
aV828.75
p349
aV673.42
p350
aV667.06
p351
aV951.12
p352
aV467.66
p353
aV885.33
p354
aV621.70
p355
aV924.96
p356
aV968.40
p357
aV1079.62
p358
aV900.10
p359
aV872.57
p360
aV609.63
p361
aV987.88
p362
aV830.39
p363
aV845.87
p364
aV792.72
p365
aV477.69
p366
aV833.89
p367
aV819.93
p368
aV834.25
p369
aV563.23
p370
aV599.06
p371
aV746.74
p372
aV1097.63
p373
aV877.19
p374
aV786.51
p375
aV878.46
p376
aV786.89
p377
aV814.86
p378
aV789.02
p379
aV766.18
p380
aV787.92
p381
aV443.71
p382
aV1090.90
p383
aV417.63
p384
aV415.11
p385
aV699.87
p386
aV712.47
p387
aV742.08
p388
aV726.65
p389
aV912.40
p390
aV731.77
p391
aV703.92
p392
aV716.11
p393
aV1035.52
p394
aV733.20
p395
aV993.89
p396
aV981.01
p397
aV672.37
p398
aV922.16
p399
aV960.86
p400
aV950.04
p401
aV912.40
p402
aV739.95
p403
aV704.63
p404
aV975.10
p405
aV342.11
p406
aV364.96
p407
aV352.12
p408
aV337.33
p409
aV366.66
p410
aV815.82
p411
aV714.21
p412
aV950.04
p413
aV408.23
p414
aV730.86
p415
aV924.96
p416
aV975.10
p417
aV972.34
p418
aV1001.45
p419
aVjanuary
p420
aVfebruary
p421
aVmarch
p422
aVapril
p423
aVmay
p424
aVjune
p425
aVjuly
p426
aVaugust
p427
aVseptember
p428
aVoctober
p429
aVnovember
p430
aVdecember
p431
atp432
ba(lp433
g17
(g18
(dp434
g20
g21
(g22
(I0
tp435
g24
tp436
Rp437
(I1
(L25L
tp438
g31
I00
(lp439
I1
aI2
aI3
aI4
aI5
aI6
aI7
aI8
aI9
aI10
aI11
aI12
aI13
aI14
aI15
aI16
aI17
aI18
aI19
aI20
aI21
aI22
aI23
aI24
ag113
atp440
bsg43
Nstp441
Rp442
a(dp443
g86
(dp444
g88
g106
sg89
(lp445
(dp446
g92
g93
(I0
I25
L1L
tp447
Rp448
sg96
g129
sasstp449
bsbsS'weekend'
p450
g2
(g3
g4
Ntp451
Rp452
(dp453
g8
g9
sg10
g11
sg12
g2
(g13
g4
Ntp454
Rp455
((lp456
g17
(g18
(dp457
g20
g21
(g22
(I0
tp458
g24
tp459
Rp460
(I1
(L25L
tp461
g31
I00
(lp462
I1
aI2
aI3
aI4
aI5
aI6
aI7
aI8
aI9
aI10
aI11
aI12
aI13
aI14
aI15
aI16
aI17
aI18
aI19
aI20
aI21
aI22
aI23
aI24
ag113
atp463
bsg43
Nstp464
Rp465
ag17
(g46
(dp466
g20
g21
(g22
(I0
tp467
g24
tp468
Rp469
(I1
(L12L
tp470
g54
I00
S'\x00\x00\x00\x00\x00\x00\x00\x00\x01\x00\x00\x00\x00\x00\x00\x00\x02\x00\x00\x00\x00\x00\x00\x00\x03\x00\x00\x00\x00\x00\x00\x00\x04\x00\x00\x00\x00\x00\x00\x00\x05\x00\x00\x00\x00\x00\x00\x00\x06\x00\x00\x00\x00\x00\x00\x00\x07\x00\x00\x00\x00\x00\x00\x00\x08\x00\x00\x00\x00\x00\x00\x00\t\x00\x00\x00\x00\x00\x00\x00\n\x00\x00\x00\x00\x00\x00\x00\x0b\x00\x00\x00\x00\x00\x00\x00'
p471
tp472
bsg43
Nstp473
Rp474
a(lp475
g21
(g22
(I0
tp476
g24
tp477
Rp478
(I1
(L25L
L12L
tp479
g31
I00
(lp480
V384.10
p481
aV994.42
p482
aV658.60
p483
aV494.90
p484
aV960.86
p485
aV950.04
p486
aV786.63
p487
aV789.54
p488
aV782.43
p489
aV740.76
p490
aV678.81
p491
aV870.72
p492
aV1016.88
p493
aV642.30
p494
aV364.12
p495
aV728.36
p496
aV459.85
p497
aV787.88
p498
aV912.40
p499
aV501.86
p500
aV774.62
p501
aV437.82
p502
aV675.14
p503
aV620.59
p504
aV663.27
p505
aV353.14
p506
aV987.88
p507
aV713.34
p508
aV729.05
p509
aV759.45
p510
aV912.40
p511
aV783.48
p512
aV493.14
p513
aV975.10
p514
aV668.82
p515
aV613.45
p516
aV374.31
p517
aV870.35
p518
aV361.41
p519
aV425.59
p520
aV730.23
p521
aV475.20
p522
aV912.40
p523
aV788.92
p524
aV772.54
p525
aV776.17
p526
aV669.67
p527
aV316.50
p528
aV751.01
p529
aV349.25
p530
aV987.88
p531
aV700.74
p532
aV960.86
p533
aV762.45
p534
aV498.08
p535
aV780.99
p536
aV767.52
p537
aV398.16
p538
aV1024.42
p539
aV956.12
p540
aV661.47
p541
aV631.85
p542
aV689.17
p543
aV752.28
p544
aV449.10
p545
aV950.04
p546
aV840.43
p547
aV837.53
p548
aV829.43
p549
aV744.95
p550
aV684.52
p551
aV317.00
p552
aV725.69
p553
aV407.55
p554
aV419.93
p555
aV617.45
p556
aV736.90
p557
aV603.64
p558
aV338.50
p559
aV686.99
p560
aV718.42
p561
aV701.52
p562
aV745.96
p563
aV670.99
p564
aV750.43
p565
aV493.17
p566
aV304.78
p567
aV231.57
p568
aV0.00
p569
aV0.00
p570
aV174.15
p571
aV0.00
p572
aV255.57
p573
aV168.41
p574
aV191.29
p575
aV676.67
p576
aV0.00
p577
aV0.00
p578
aV0.00
p579
aV0.00
p580
aV0.00
p581
aV0.00
p582
aV0.00
p583
aV0.00
p584
aV0.00
p585
aV0.00
p586
aV0.00
p587
aV64.17
p588
aV0.00
p589
aV0.00
p590
aV0.00
p591
aV0.00
p592
aV0.00
p593
aV0.00
p594
aV0.00
p595
aV0.00
p596
aV0.00
p597
aV0.00
p598
aV0.00
p599
aV0.00
p600
aV0.00
p601
aV0.00
p602
aV0.00
p603
aV0.00
p604
aV0.00
p605
aV0.00
p606
aV0.00
p607
aV0.00
p608
aV0.00
p609
aV0.00
p610
aV0.00
p611
aV0.00
p612
aV0.00
p613
aV0.00
p614
aV0.00
p615
aV0.00
p616
aV0.00
p617
aV0.00
p618
aV0.00
p619
aV0.00
p620
aV0.00
p621
aV0.00
p622
aV0.00
p623
aV0.00
p624
aV0.00
p625
aV0.00
p626
aV0.00
p627
aV0.00
p628
aV0.00
p629
aV0.00
p630
aV0.00
p631
aV0.00
p632
aV0.00
p633
aV0.00
p634
aV0.00
p635
aV0.00
p636
aV0.00
p637
aV0.00
p638
aV0.00
p639
aV0.00
p640
aV0.00
p641
aV0.00
p642
aV0.00
p643
aV0.00
p644
aV0.00
p645
aV0.00
p646
aV0.00
p647
aV0.00
p648
aV0.00
p649
aV0.00
p650
aV0.00
p651
aV0.00
p652
aV0.00
p653
aV0.00
p654
aV0.00
p655
aV0.00
p656
aV0.00
p657
aV0.00
p658
aV0.00
p659
aV0.00
p660
aV0.00
p661
aV0.00
p662
aV0.00
p663
aV0.00
p664
aV0.00
p665
aV0.00
p666
aV0.00
p667
aV0.00
p668
aV0.00
p669
aV54.57
p670
aV0.00
p671
aV0.00
p672
aV501.07
p673
aV0.00
p674
aV160.57
p675
aV104.70
p676
aV190.97
p677
aV0.00
p678
aV0.00
p679
aV0.00
p680
aV0.00
p681
aV544.75
p682
aV551.86
p683
aV898.36
p684
aV834.60
p685
aV596.07
p686
aV761.48
p687
aV474.84
p688
aV527.03
p689
aV181.97
p690
aV248.31
p691
aV354.19
p692
aV488.67
p693
aV831.71
p694
aV1079.62
p695
aV839.79
p696
aV1079.13
p697
aV854.28
p698
aV668.64
p699
aV578.85
p700
aV873.29
p701
aV673.36
p702
aV912.40
p703
aV937.84
p704
aV874.17
p705
aV975.10
p706
aV531.78
p707
aV780.48
p708
aV502.85
p709
aV1097.63
p710
aV788.64
p711
aV791.69
p712
aV813.22
p713
aV950.04
p714
aV477.55
p715
aV775.64
p716
aV806.37
p717
aV531.72
p718
aV767.22
p719
aV757.01
p720
aV430.27
p721
aV721.96
p722
aV987.88
p723
aV776.64
p724
aV644.04
p725
aV674.85
p726
aV491.47
p727
aV683.99
p728
aV806.53
p729
aV511.67
p730
aV710.38
p731
aV670.04
p732
aV1062.78
p733
aV703.74
p734
aV739.56
p735
aV762.20
p736
aV493.20
p737
aV512.98
p738
aV774.91
p739
aV937.84
p740
aV924.96
p741
aV769.28
p742
aV704.84
p743
aV383.16
p744
aV412.82
p745
aV640.30
p746
aV640.54
p747
aV755.41
p748
aV772.50
p749
aV802.06
p750
aV912.40
p751
aV516.23
p752
aV799.13
p753
aV760.81
p754
aV408.27
p755
aV656.28
p756
aV1052.23
p757
aV680.91
p758
aV433.00
p759
aV922.16
p760
aV754.47
p761
aV950.04
p762
aV912.40
p763
aV786.25
p764
aV785.31
p765
aV975.10
p766
aV689.48
p767
aV363.62
p768
aVjanuary
p769
aVfebruary
p770
aVmarch
p771
aVapril
p772
aVmay
p773
aVjune
p774
aVjuly
p775
aVaugust
p776
aVseptember
p777
aVoctober
p778
aVnovember
p779
aVdecember
p780
atp781
ba(lp782
g17
(g18
(dp783
g20
g21
(g22
(I0
tp784
g24
tp785
Rp786
(I1
(L25L
tp787
g31
I00
(lp788
I1
aI2
aI3
aI4
aI5
aI6
aI7
aI8
aI9
aI10
aI11
aI12
aI13
aI14
aI15
aI16
aI17
aI18
aI19
aI20
aI21
aI22
aI23
aI24
ag113
atp789
bsg43
Nstp790
Rp791
a(dp792
g86
(dp793
g88
g456
sg89
(lp794
(dp795
g92
g93
(I0
I25
L1L
tp796
Rp797
sg96
g478
sasstp798
bsbsS'peak'
p799
g2
(g3
g4
Ntp800
Rp801
(dp802
g8
g9
sg10
g11
sg12
g2
(g13
g4
Ntp803
Rp804
((lp805
g17
(g18
(dp806
g20
g21
(g22
(I0
tp807
g24
tp808
Rp809
(I1
(L25L
tp810
g31
I00
(lp811
I1
aI2
aI3
aI4
aI5
aI6
aI7
aI8
aI9
aI10
aI11
aI12
aI13
aI14
aI15
aI16
aI17
aI18
aI19
aI20
aI21
aI22
aI23
aI24
ag113
atp812
bsg43
Nstp813
Rp814
ag17
(g46
(dp815
g20
g21
(g22
(I0
tp816
g24
tp817
Rp818
(I1
(L12L
tp819
g54
I00
S'\x00\x00\x00\x00\x00\x00\x00\x00\x01\x00\x00\x00\x00\x00\x00\x00\x02\x00\x00\x00\x00\x00\x00\x00\x03\x00\x00\x00\x00\x00\x00\x00\x04\x00\x00\x00\x00\x00\x00\x00\x05\x00\x00\x00\x00\x00\x00\x00\x06\x00\x00\x00\x00\x00\x00\x00\x07\x00\x00\x00\x00\x00\x00\x00\x08\x00\x00\x00\x00\x00\x00\x00\t\x00\x00\x00\x00\x00\x00\x00\n\x00\x00\x00\x00\x00\x00\x00\x0b\x00\x00\x00\x00\x00\x00\x00'
p820
tp821
bsg43
Nstp822
Rp823
a(lp824
g21
(g22
(I0
tp825
g24
tp826
Rp827
(I1
(L25L
L12L
tp828
g31
I00
(lp829
V824.90
p830
aV1097.63
p831
aV987.88
p832
aV922.16
p833
aV918.78
p834
aV950.04
p835
aV912.40
p836
aV937.84
p837
aV924.96
p838
aV975.10
p839
aV1079.62
p840
aV1090.90
p841
aV822.02
p842
aV506.84
p843
aV912.93
p844
aV922.16
p845
aV960.86
p846
aV950.04
p847
aV912.40
p848
aV937.84
p849
aV924.96
p850
aV933.11
p851
aV850.48
p852
aV772.39
p853
aV814.65
p854
aV791.24
p855
aV850.31
p856
aV922.16
p857
aV886.72
p858
aV950.04
p859
aV912.40
p860
aV937.84
p861
aV924.96
p862
aV975.10
p863
aV1079.62
p864
aV771.08
p865
aV1025.17
p866
aV780.05
p867
aV987.88
p868
aV922.16
p869
aV960.86
p870
aV950.04
p871
aV912.40
p872
aV937.84
p873
aV924.96
p874
aV975.10
p875
aV1079.62
p876
aV789.17
p877
aV925.61
p878
aV849.53
p879
aV940.88
p880
aV922.16
p881
aV960.86
p882
aV950.04
p883
aV912.40
p884
aV937.84
p885
aV924.96
p886
aV975.10
p887
aV1079.62
p888
aV1090.90
p889
aV929.64
p890
aV848.45
p891
aV987.88
p892
aV922.16
p893
aV960.86
p894
aV950.04
p895
aV912.40
p896
aV937.84
p897
aV924.96
p898
aV975.10
p899
aV855.27
p900
aV901.73
p901
aV1079.13
p902
aV1077.76
p903
aV987.88
p904
aV922.16
p905
aV960.86
p906
aV950.04
p907
aV912.40
p908
aV937.84
p909
aV924.96
p910
aV975.10
p911
aV971.57
p912
aV1090.90
p913
aV1079.13
p914
aV935.54
p915
aV785.57
p916
aV663.80
p917
aV529.74
p918
aV496.42
p919
aV530.41
p920
aV500.12
p921
aV747.35
p922
aV638.49
p923
aV850.08
p924
aV1090.90
p925
aV894.58
p926
aV338.22
p927
aV354.67
p928
aV249.32
p929
aV98.23
p930
aV97.85
p931
aV98.19
p932
aV45.12
p933
aV0.00
p934
aV252.53
p935
aV502.66
p936
aV311.97
p937
aV400.36
p938
aV0.00
p939
aV0.00
p940
aV0.00
p941
aV0.00
p942
aV0.00
p943
aV0.00
p944
aV0.00
p945
aV0.00
p946
aV0.00
p947
aV231.32
p948
aV778.21
p949
aV215.12
p950
aV0.00
p951
aV0.00
p952
aV0.00
p953
aV0.00
p954
aV0.00
p955
aV0.00
p956
aV0.00
p957
aV0.00
p958
aV0.00
p959
aV0.00
p960
aV114.41
p961
aV0.00
p962
aV0.00
p963
aV0.00
p964
aV0.00
p965
aV0.00
p966
aV0.00
p967
aV0.00
p968
aV0.00
p969
aV0.00
p970
aV0.00
p971
aV0.00
p972
aV61.40
p973
aV460.19
p974
aV0.00
p975
aV0.00
p976
aV0.00
p977
aV0.00
p978
aV0.00
p979
aV0.00
p980
aV0.00
p981
aV0.00
p982
aV0.00
p983
aV0.00
p984
aV254.02
p985
aV267.93
p986
aV0.00
p987
aV0.00
p988
aV0.00
p989
aV0.00
p990
aV0.00
p991
aV0.00
p992
aV0.00
p993
aV0.00
p994
aV0.00
p995
aV182.47
p996
aV24.05
p997
aV108.03
p998
aV0.00
p999
aV0.00
p1000
aV0.00
p1001
aV0.00
p1002
aV0.00
p1003
aV0.00
p1004
aV0.00
p1005
aV168.59
p1006
aV45.70
p1007
aV0.00
p1008
aV0.00
p1009
aV0.00
p1010
aV17.27
p1011
aV0.00
p1012
aV0.00
p1013
aV256.85
p1014
aV226.50
p1015
aV146.31
p1016
aV67.00
p1017
aV417.65
p1018
aV489.90
p1019
aV338.09
p1020
aV382.42
p1021
aV1079.13
p1022
aV617.17
p1023
aV955.75
p1024
aV861.70
p1025
aV498.88
p1026
aV464.34
p1027
aV364.87
p1028
aV375.04
p1029
aV735.30
p1030
aV863.65
p1031
aV1079.62
p1032
aV1090.90
p1033
aV1079.13
p1034
aV1097.63
p1035
aV987.88
p1036
aV721.01
p1037
aV498.88
p1038
aV464.34
p1039
aV364.87
p1040
aV375.04
p1041
aV735.30
p1042
aV863.65
p1043
aV1079.62
p1044
aV1090.90
p1045
aV1065.44
p1046
aV1097.63
p1047
aV987.88
p1048
aV922.16
p1049
aV960.86
p1050
aV923.86
p1051
aV885.33
p1052
aV895.76
p1053
aV924.96
p1054
aV975.10
p1055
aV1079.62
p1056
aV1090.90
p1057
aV1035.97
p1058
aV833.65
p1059
aV987.88
p1060
aV922.16
p1061
aV960.86
p1062
aV923.86
p1063
aV885.33
p1064
aV895.76
p1065
aV924.96
p1066
aV975.10
p1067
aV1079.62
p1068
aV1061.49
p1069
aV886.23
p1070
aV1097.63
p1071
aV972.41
p1072
aV922.16
p1073
aV960.86
p1074
aV923.86
p1075
aV885.33
p1076
aV895.76
p1077
aV924.96
p1078
aV975.10
p1079
aV824.15
p1080
aV958.50
p1081
aV852.67
p1082
aV931.37
p1083
aV937.03
p1084
aV922.16
p1085
aV960.86
p1086
aV950.04
p1087
aV912.40
p1088
aV937.84
p1089
aV924.96
p1090
aV975.10
p1091
aV908.27
p1092
aV1090.90
p1093
aV790.27
p1094
aV871.08
p1095
aV987.88
p1096
aV922.16
p1097
aV960.86
p1098
aV950.04
p1099
aV912.40
p1100
aV937.84
p1101
aV924.96
p1102
aV975.10
p1103
aV888.06
p1104
aV861.15
p1105
aV781.61
p1106
aV780.55
p1107
aV863.61
p1108
aV922.16
p1109
aV889.13
p1110
aV950.04
p1111
aV912.40
p1112
aV937.84
p1113
aV924.96
p1114
aV975.10
p1115
aV839.88
p1116
aV1023.37
p1117
aVjanuary
p1118
aVfebruary
p1119
aVmarch
p1120
aVapril
p1121
aVmay
p1122
aVjune
p1123
aVjuly
p1124
aVaugust
p1125
aVseptember
p1126
aVoctober
p1127
aVnovember
p1128
aVdecember
p1129
atp1130
ba(lp1131
g17
(g18
(dp1132
g20
g21
(g22
(I0
tp1133
g24
tp1134
Rp1135
(I1
(L25L
tp1136
g31
I00
(lp1137
I1
aI2
aI3
aI4
aI5
aI6
aI7
aI8
aI9
aI10
aI11
aI12
aI13
aI14
aI15
aI16
aI17
aI18
aI19
aI20
aI21
aI22
aI23
aI24
ag113
atp1138
bsg43
Nstp1139
Rp1140
a(dp1141
g86
(dp1142
g88
g805
sg89
(lp1143
(dp1144
g92
g93
(I0
I25
L1L
tp1145
Rp1146
sg96
g827
sasstp1147
bsbssS'doc'
p1148
(lp1149
(dp1150
S'type'
p1151
S'value'
p1152
sg43
S'OPEX_saving'
p1153
sS'id'
p1154
S'Saving (%)'
p1155
sa(dp1156
g1151
S'table'
p1157
sg43
g1
sg1154
S'1.1.2.1 Renewables (PV and Solar Thermal)'
p1158
sa(dp1159
g1151
g1157
sg43
S'energy_storage_new_capacity'
p1160
sg1154
S'++++++ 1.2 Energy Storage'
p1161
sa(dp1162
g1151
S'timeserie'
p1163
sg43
S'hourly_pv_self_consumpt'
p1164
sg1154
S'*** Hourly PV output for self consumption'
p1165
sa(dp1166
g1151
g1163
sg43
S'hourly_pv_export'
p1167
sg1154
S'*** Hourly PV output for export '
p1168
sa(dp1169
g1151
g1163
sg43
S'elec_stored_stationnary_batteries'
p1170
sg1154
S'*** Electricity stored in Stationary Batteries (kWh)'
p1171
sa(dp1172
g1151
g1163
sg43
S'elec_for_stationnary_battery_charging_before_eff'
p1173
sg1154
S'Electricity for Stationary Battery charging (before charging efficiency) (kW)'
p1174
sa(dp1175
g1151
g1163
sg43
S'elec_provided_by_stationnary_battery_charging_after_eff'
p1176
sg1154
S'*** Electricity Provided by the Stationary Battery (after discharging efficiency) (kW)'
p1177
sa(dp1178
g1151
g1163
sg43
g98
sg1154
S'*** Hourly purchase from electric utility (kW)'
p1179
sasg1170
(dp1180
g100
g2
(g3
g4
Ntp1181
Rp1182
(dp1183
g8
g9
sg10
g11
sg12
g2
(g13
g4
Ntp1184
Rp1185
((lp1186
g17
(g18
(dp1187
g20
g21
(g22
(I0
tp1188
g24
tp1189
Rp1190
(I1
(L25L
tp1191
g31
I00
(lp1192
I1
aI2
aI3
aI4
aI5
aI6
aI7
aI8
aI9
aI10
aI11
aI12
aI13
aI14
aI15
aI16
aI17
aI18
aI19
aI20
aI21
aI22
aI23
aI24
ag113
atp1193
bsg43
Nstp1194
Rp1195
ag17
(g46
(dp1196
g20
g21
(g22
(I0
tp1197
g24
tp1198
Rp1199
(I1
(L12L
tp1200
g54
I00
S'\x00\x00\x00\x00\x00\x00\x00\x00\x01\x00\x00\x00\x00\x00\x00\x00\x02\x00\x00\x00\x00\x00\x00\x00\x03\x00\x00\x00\x00\x00\x00\x00\x04\x00\x00\x00\x00\x00\x00\x00\x05\x00\x00\x00\x00\x00\x00\x00\x06\x00\x00\x00\x00\x00\x00\x00\x07\x00\x00\x00\x00\x00\x00\x00\x08\x00\x00\x00\x00\x00\x00\x00\t\x00\x00\x00\x00\x00\x00\x00\n\x00\x00\x00\x00\x00\x00\x00\x0b\x00\x00\x00\x00\x00\x00\x00'
p1201
tp1202
bsg43
Nstp1203
Rp1204
a(lp1205
g21
(g22
(I0
tp1206
g24
tp1207
Rp1208
(I1
(L25L
L12L
tp1209
g31
I00
(lp1210
V374.81
p1211
aV633.70
p1212
aV625.50
p1213
aV738.64
p1214
aV317.33
p1215
aV725.46
p1216
aV635.93
p1217
aV523.05
p1218
aV740.24
p1219
aV838.26
p1220
aV950.08
p1221
aV954.53
p1222
aV374.43
p1223
aV633.07
p1224
aV425.71
p1225
aV973.19
p1226
aV317.01
p1227
aV407.72
p1228
aV635.29
p1229
aV522.52
p1230
aV422.49
p1231
aV520.41
p1232
aV1056.70
p1233
aV636.56
p1234
aV374.06
p1235
aV317.33
p1236
aV425.28
p1237
aV972.22
p1238
aV577.56
p1239
aV407.32
p1240
aV634.66
p1241
aV715.18
p1242
aV422.07
p1243
aV823.62
p1244
aV1055.65
p1245
aV635.93
p1246
aV690.70
p1247
aV317.01
p1248
aV424.85
p1249
aV971.25
p1250
aV576.98
p1251
aV317.01
p1252
aV317.01
p1253
aV714.47
p1254
aV421.65
p1255
aV505.78
p1256
aV737.58
p1257
aV635.29
p1258
aV373.00
p1259
aV633.70
p1260
aV667.08
p1261
aV1012.35
p1262
aV317.33
p1263
aV364.23
p1264
aV428.13
p1265
aV396.74
p1266
aV421.23
p1267
aV505.28
p1268
aV1053.85
p1269
aV634.66
p1270
aV372.62
p1271
aV633.07
p1272
aV790.74
p1273
aV1012.44
p1274
aV317.01
p1275
aV317.65
p1276
aV346.38
p1277
aV317.01
p1278
aV377.61
p1279
aV559.11
p1280
aV735.79
p1281
aV317.01
p1282
aV542.25
p1283
aV317.65
p1284
aV789.95
p1285
aV694.42
p1286
aV317.01
p1287
aV317.33
p1288
aV317.01
p1289
aV384.76
p1290
aV317.33
p1291
aV602.10
p1292
aV893.60
p1293
aV483.77
p1294
aV634.97
p1295
aV317.33
p1296
aV472.15
p1297
aV376.71
p1298
aV317.01
p1299
aV317.01
p1300
aV317.01
p1301
aV317.01
p1302
aV317.01
p1303
aV355.98
p1304
aV575.70
p1305
aV483.28
p1306
aV317.33
p1307
aV317.01
p1308
aV317.01
p1309
aV317.01
p1310
aV317.01
p1311
aV317.01
p1312
aV317.01
p1313
aV317.01
p1314
aV364.39
p1315
aV317.01
p1316
aV317.01
p1317
aV482.80
p1318
aV317.01
p1319
aV317.01
p1320
aV317.01
p1321
aV317.33
p1322
aV317.01
p1323
aV317.01
p1324
aV395.65
p1325
aV358.55
p1326
aV364.03
p1327
aV614.16
p1328
aV317.01
p1329
aV317.01
p1330
aV320.74
p1331
aV317.65
p1332
aV317.01
p1333
aV317.01
p1334
aV317.01
p1335
aV317.33
p1336
aV395.26
p1337
aV358.19
p1338
aV363.66
p1339
aV930.56
p1340
aV317.33
p1341
aV449.70
p1342
aV402.91
p1343
aV317.33
p1344
aV317.01
p1345
aV317.01
p1346
aV633.70
p1347
aV317.01
p1348
aV394.86
p1349
aV357.84
p1350
aV363.30
p1351
aV929.63
p1352
aV317.01
p1353
aV616.53
p1354
aV493.84
p1355
aV317.01
p1356
aV633.70
p1357
aV633.70
p1358
aV797.98
p1359
aV410.39
p1360
aV394.47
p1361
aV357.48
p1362
aV659.60
p1363
aV928.70
p1364
aV510.63
p1365
aV590.72
p1366
aV676.96
p1367
aV570.73
p1368
aV892.42
p1369
aV949.93
p1370
aV797.19
p1371
aV727.00
p1372
aV711.08
p1373
aV674.13
p1374
aV954.96
p1375
aV1056.70
p1376
aV802.75
p1377
aV769.87
p1378
aV770.00
p1379
aV887.17
p1380
aV1056.70
p1381
aV1056.70
p1382
aV1056.70
p1383
aV1034.41
p1384
aV1027.38
p1385
aV990.47
p1386
aV1056.70
p1387
aV1056.70
p1388
aV1056.70
p1389
aV1056.70
p1390
aV819.74
p1391
aV1056.70
p1392
aV1055.65
p1393
aV1055.65
p1394
aV1007.89
p1395
aV1056.70
p1396
aV1056.70
p1397
aV1056.70
p1398
aV926.18
p1399
aV738.64
p1400
aV1055.65
p1401
aV1025.23
p1402
aV818.92
p1403
aV1055.65
p1404
aV1054.59
p1405
aV1054.59
p1406
aV689.87
p1407
aV738.64
p1408
aV738.64
p1409
aV952.62
p1410
aV646.64
p1411
aV436.35
p1412
aV821.52
p1413
aV953.26
p1414
aV696.04
p1415
aV737.58
p1416
aV736.53
p1417
aV1053.54
p1418
aV372.17
p1419
aV654.56
p1420
aV465.90
p1421
aV634.66
p1422
aV328.98
p1423
aV318.28
p1424
aV783.08
p1425
aV635.29
p1426
aV695.35
p1427
aV643.23
p1428
aV418.78
p1429
aV735.47
p1430
aV371.80
p1431
aV336.89
p1432
aV634.66
p1433
aV317.01
p1434
aV317.01
p1435
aV317.96
p1436
aV953.57
p1437
aV634.66
p1438
aV694.65
p1439
aV325.58
p1440
aV539.53
p1441
aV734.74
p1442
aV371.43
p1443
aV317.65
p1444
aV317.01
p1445
aV338.97
p1446
aV317.96
p1447
aV317.65
p1448
aV635.61
p1449
aV317.01
p1450
aV693.96
p1451
aV634.66
p1452
aV635.93
p1453
aV734.00
p1454
aV432.20
p1455
aV317.33
p1456
aV378.33
p1457
aV338.63
p1458
aV317.65
p1459
aV317.33
p1460
aV317.96
p1461
aV620.58
p1462
aV376.25
p1463
aV317.01
p1464
aV635.29
p1465
aV733.27
p1466
aV431.77
p1467
aV317.01
p1468
aV576.65
p1469
aV338.29
p1470
aV317.33
p1471
aV317.01
p1472
aV634.66
p1473
aV639.12
p1474
aV692.89
p1475
aV633.70
p1476
aV634.66
p1477
aV931.96
p1478
aV635.61
p1479
aV515.67
p1480
aV767.99
p1481
aV337.95
p1482
aV317.01
p1483
aV565.98
p1484
aV317.01
p1485
aV321.47
p1486
aV375.18
p1487
aV317.01
p1488
aV317.01
p1489
aV1056.70
p1490
aV634.97
p1491
aV726.19
p1492
aV450.22
p1493
aV337.62
p1494
aV528.21
p1495
aV839.10
p1496
aV633.70
p1497
aV638.16
p1498
aVjanuary
p1499
aVfebruary
p1500
aVmarch
p1501
aVapril
p1502
aVmay
p1503
aVjune
p1504
aVjuly
p1505
aVaugust
p1506
aVseptember
p1507
aVoctober
p1508
aVnovember
p1509
aVdecember
p1510
atp1511
ba(lp1512
g17
(g18
(dp1513
g20
g21
(g22
(I0
tp1514
g24
tp1515
Rp1516
(I1
(L25L
tp1517
g31
I00
(lp1518
I1
aI2
aI3
aI4
aI5
aI6
aI7
aI8
aI9
aI10
aI11
aI12
aI13
aI14
aI15
aI16
aI17
aI18
aI19
aI20
aI21
aI22
aI23
aI24
ag113
atp1519
bsg43
Nstp1520
Rp1521
a(dp1522
g86
(dp1523
g88
g1186
sg89
(lp1524
(dp1525
g92
g93
(I0
I25
L1L
tp1526
Rp1527
sg96
g1208
sasstp1528
bsbsg450
g2
(g3
g4
Ntp1529
Rp1530
(dp1531
g8
g9
sg10
g11
sg12
g2
(g13
g4
Ntp1532
Rp1533
((lp1534
g17
(g18
(dp1535
g20
g21
(g22
(I0
tp1536
g24
tp1537
Rp1538
(I1
(L25L
tp1539
g31
I00
(lp1540
I1
aI2
aI3
aI4
aI5
aI6
aI7
aI8
aI9
aI10
aI11
aI12
aI13
aI14
aI15
aI16
aI17
aI18
aI19
aI20
aI21
aI22
aI23
aI24
ag113
atp1541
bsg43
Nstp1542
Rp1543
ag17
(g46
(dp1544
g20
g21
(g22
(I0
tp1545
g24
tp1546
Rp1547
(I1
(L12L
tp1548
g54
I00
S'\x00\x00\x00\x00\x00\x00\x00\x00\x01\x00\x00\x00\x00\x00\x00\x00\x02\x00\x00\x00\x00\x00\x00\x00\x03\x00\x00\x00\x00\x00\x00\x00\x04\x00\x00\x00\x00\x00\x00\x00\x05\x00\x00\x00\x00\x00\x00\x00\x06\x00\x00\x00\x00\x00\x00\x00\x07\x00\x00\x00\x00\x00\x00\x00\x08\x00\x00\x00\x00\x00\x00\x00\t\x00\x00\x00\x00\x00\x00\x00\n\x00\x00\x00\x00\x00\x00\x00\x0b\x00\x00\x00\x00\x00\x00\x00'
p1549
tp1550
bsg43
Nstp1551
Rp1552
a(lp1553
g21
(g22
(I0
tp1554
g24
tp1555
Rp1556
(I1
(L25L
L12L
tp1557
g31
I00
(lp1558
V317.01
p1559
aV1056.70
p1560
aV634.66
p1561
aV636.56
p1562
aV737.23
p1563
aV618.13
p1564
aV615.92
p1565
aV737.16
p1566
aV627.46
p1567
aV637.30
p1568
aV317.01
p1569
aV636.88
p1570
aV633.70
p1571
aV1056.70
p1572
aV317.01
p1573
aV635.93
p1574
aV419.49
p1575
aV635.29
p1576
aV728.49
p1577
aV419.41
p1578
aV626.83
p1579
aV319.65
p1580
aV317.65
p1581
aV636.25
p1582
aV633.07
p1583
aV738.64
p1584
aV628.59
p1585
aV635.29
p1586
aV419.07
p1587
aV634.66
p1588
aV843.61
p1589
aV418.99
p1590
aV317.33
p1591
aV563.73
p1592
aV317.33
p1593
aV635.61
p1594
aV317.01
p1595
aV953.57
p1596
aV317.01
p1597
aV317.65
p1598
aV418.65
p1599
aV317.01
p1600
aV953.26
p1601
aV418.57
p1602
aV317.01
p1603
aV634.97
p1604
aV317.01
p1605
aV317.96
p1606
aV392.61
p1607
aV635.61
p1608
aV627.77
p1609
aV317.33
p1610
aV634.66
p1611
aV333.83
p1612
aV635.29
p1613
aV418.15
p1614
aV317.96
p1615
aV317.33
p1616
aV633.70
p1617
aV634.66
p1618
aV392.21
p1619
aV634.97
p1620
aV627.14
p1621
aV317.01
p1622
aV317.01
p1623
aV450.51
p1624
aV634.66
p1625
aV417.74
p1626
aV317.65
p1627
aV317.01
p1628
aV633.07
p1629
aV317.01
p1630
aV391.82
p1631
aV317.33
p1632
aV317.33
p1633
aV317.33
p1634
aV470.96
p1635
aV450.06
p1636
aV317.01
p1637
aV461.94
p1638
aV317.33
p1639
aV317.33
p1640
aV632.44
p1641
aV317.33
p1642
aV391.43
p1643
aV317.01
p1644
aV317.01
p1645
aV317.01
p1646
aV317.01
p1647
aV317.01
p1648
aV317.01
p1649
aV317.01
p1650
aV317.01
p1651
aV317.01
p1652
aV358.60
p1653
aV317.01
p1654
aV317.01
p1655
aV317.01
p1656
aV317.01
p1657
aV317.65
p1658
aV317.01
p1659
aV317.01
p1660
aV317.01
p1661
aV317.01
p1662
aV317.01
p1663
aV317.01
p1664
aV317.01
p1665
aV317.01
p1666
aV356.18
p1667
aV317.01
p1668
aV317.65
p1669
aV317.33
p1670
aV317.01
p1671
aV317.01
p1672
aV317.65
p1673
aV317.01
p1674
aV633.70
p1675
aV317.01
p1676
aV505.29
p1677
aV317.01
p1678
aV536.42
p1679
aV317.01
p1680
aV317.33
p1681
aV317.01
p1682
aV317.65
p1683
aV633.70
p1684
aV317.33
p1685
aV317.01
p1686
aV633.07
p1687
aV317.01
p1688
aV821.80
p1689
aV317.01
p1690
aV789.87
p1691
aV317.01
p1692
aV317.01
p1693
aV317.01
p1694
aV317.33
p1695
aV633.07
p1696
aV317.01
p1697
aV317.01
p1698
aV632.44
p1699
aV317.01
p1700
aV820.97
p1701
aV317.01
p1702
aV1024.06
p1703
aV317.01
p1704
aV317.01
p1705
aV317.01
p1706
aV317.01
p1707
aV796.17
p1708
aV317.01
p1709
aV317.01
p1710
aV631.81
p1711
aV423.85
p1712
aV820.15
p1713
aV354.85
p1714
aV1023.03
p1715
aV423.85
p1716
aV598.59
p1717
aV633.70
p1718
aV633.70
p1719
aV795.38
p1720
aV465.85
p1721
aV633.70
p1722
aV948.18
p1723
aV740.43
p1724
aV974.92
p1725
aV671.51
p1726
aV1056.70
p1727
aV740.43
p1728
aV915.00
p1729
aV816.38
p1730
aV881.26
p1731
aV794.58
p1732
aV782.40
p1733
aV740.43
p1734
aV948.81
p1735
aV1056.70
p1736
aV973.95
p1737
aV987.85
p1738
aV1056.70
p1739
aV1056.70
p1740
aV1056.70
p1741
aV1056.70
p1742
aV1056.70
p1743
aV1056.70
p1744
aV1056.70
p1745
aV1056.70
p1746
aV1056.70
p1747
aV1055.65
p1748
aV1056.70
p1749
aV1056.70
p1750
aV738.64
p1751
aV869.33
p1752
aV1056.70
p1753
aV1055.65
p1754
aV1056.70
p1755
aV949.23
p1756
aV989.03
p1757
aV1050.99
p1758
aV834.56
p1759
aV1056.70
p1760
aV738.64
p1761
aV1056.70
p1762
aV709.43
p1763
aV551.45
p1764
aV1055.65
p1765
aV1056.70
p1766
aV1056.70
p1767
aV631.27
p1768
aV791.32
p1769
aV948.18
p1770
aV516.72
p1771
aV986.10
p1772
aV942.70
p1773
aV1055.65
p1774
aV954.53
p1775
aV550.90
p1776
aV846.42
p1777
aV738.64
p1778
aV1055.65
p1779
aV630.64
p1780
aV1031.88
p1781
aV1056.70
p1782
aV516.20
p1783
aV1056.70
p1784
aV637.20
p1785
aV1054.59
p1786
aV636.57
p1787
aV798.04
p1788
aV845.58
p1789
aV737.90
p1790
aV1054.59
p1791
aV777.32
p1792
aV713.84
p1793
aV1056.70
p1794
aV515.68
p1795
aV738.64
p1796
aV636.56
p1797
aV1053.54
p1798
aV318.92
p1799
aV797.25
p1800
aV1056.70
p1801
aV737.16
p1802
aV879.16
p1803
aV634.97
p1804
aV396.11
p1805
aV933.47
p1806
aV515.17
p1807
aV420.89
p1808
aV635.93
p1809
aV1052.48
p1810
aV635.61
p1811
aV796.45
p1812
aV1055.65
p1813
aV736.42
p1814
aV561.27
p1815
aV317.33
p1816
aV395.72
p1817
aV1056.70
p1818
aV629.34
p1819
aV420.46
p1820
aV635.29
p1821
aV734.42
p1822
aV317.96
p1823
aV741.17
p1824
aV953.26
p1825
aV735.69
p1826
aV560.71
p1827
aV317.01
p1828
aV506.36
p1829
aV738.64
p1830
aV628.71
p1831
aV420.04
p1832
aV317.65
p1833
aV733.68
p1834
aV634.66
p1835
aV740.43
p1836
aV635.29
p1837
aV904.37
p1838
aV560.15
p1839
aV461.75
p1840
aV616.54
p1841
aV737.90
p1842
aV628.08
p1843
aV637.94
p1844
aV317.33
p1845
aV415.94
p1846
aVjanuary
p1847
aVfebruary
p1848
aVmarch
p1849
aVapril
p1850
aVmay
p1851
aVjune
p1852
aVjuly
p1853
aVaugust
p1854
aVseptember
p1855
aVoctober
p1856
aVnovember
p1857
aVdecember
p1858
atp1859
ba(lp1860
g17
(g18
(dp1861
g20
g21
(g22
(I0
tp1862
g24
tp1863
Rp1864
(I1
(L25L
tp1865
g31
I00
(lp1866
I1
aI2
aI3
aI4
aI5
aI6
aI7
aI8
aI9
aI10
aI11
aI12
aI13
aI14
aI15
aI16
aI17
aI18
aI19
aI20
aI21
aI22
aI23
aI24
ag113
atp1867
bsg43
Nstp1868
Rp1869
a(dp1870
g86
(dp1871
g88
g1534
sg89
(lp1872
(dp1873
g92
g93
(I0
I25
L1L
tp1874
Rp1875
sg96
g1556
sasstp1876
bsbsg799
g2
(g3
g4
Ntp1877
Rp1878
(dp1879
g8
g9
sg10
g11
sg12
g2
(g13
g4
Ntp1880
Rp1881
((lp1882
g17
(g18
(dp1883
g20
g21
(g22
(I0
tp1884
g24
tp1885
Rp1886
(I1
(L25L
tp1887
g31
I00
(lp1888
I1
aI2
aI3
aI4
aI5
aI6
aI7
aI8
aI9
aI10
aI11
aI12
aI13
aI14
aI15
aI16
aI17
aI18
aI19
aI20
aI21
aI22
aI23
aI24
ag113
atp1889
bsg43
Nstp1890
Rp1891
ag17
(g46
(dp1892
g20
g21
(g22
(I0
tp1893
g24
tp1894
Rp1895
(I1
(L12L
tp1896
g54
I00
S'\x00\x00\x00\x00\x00\x00\x00\x00\x01\x00\x00\x00\x00\x00\x00\x00\x02\x00\x00\x00\x00\x00\x00\x00\x03\x00\x00\x00\x00\x00\x00\x00\x04\x00\x00\x00\x00\x00\x00\x00\x05\x00\x00\x00\x00\x00\x00\x00\x06\x00\x00\x00\x00\x00\x00\x00\x07\x00\x00\x00\x00\x00\x00\x00\x08\x00\x00\x00\x00\x00\x00\x00\t\x00\x00\x00\x00\x00\x00\x00\n\x00\x00\x00\x00\x00\x00\x00\x0b\x00\x00\x00\x00\x00\x00\x00'
p1897
tp1898
bsg43
Nstp1899
Rp1900
a(lp1901
g21
(g22
(I0
tp1902
g24
tp1903
Rp1904
(I1
(L25L
L12L
tp1905
g31
I00
(lp1906
V373.92
p1907
aV635.61
p1908
aV657.18
p1909
aV873.09
p1910
aV460.65
p1911
aV527.18
p1912
aV607.85
p1913
aV575.17
p1914
aV691.77
p1915
aV657.31
p1916
aV566.81
p1917
aV886.11
p1918
aV373.55
p1919
aV317.96
p1920
aV716.28
p1921
aV902.62
p1922
aV522.98
p1923
aV583.93
p1924
aV665.43
p1925
aV640.54
p1926
aV762.56
p1927
aV707.48
p1928
aV566.24
p1929
aV885.23
p1930
aV373.18
p1931
aV317.65
p1932
aV715.56
p1933
aV927.12
p1934
aV522.46
p1935
aV648.54
p1936
aV722.90
p1937
aV709.61
p1938
aV819.80
p1939
aV798.28
p1940
aV773.03
p1941
aV884.34
p1942
aV554.64
p1943
aV317.33
p1944
aV763.91
p1945
aV859.13
p1946
aV513.40
p1947
aV630.25
p1948
aV681.83
p1949
aV686.12
p1950
aV793.00
p1951
aV811.66
p1952
aV931.27
p1953
aV883.46
p1954
aV554.09
p1955
aV317.01
p1956
aV763.15
p1957
aV794.31
p1958
aV512.97
p1959
aV626.69
p1960
aV653.67
p1961
aV665.76
p1962
aV762.76
p1963
aV823.49
p1964
aV1056.70
p1965
aV1056.70
p1966
aV553.53
p1967
aV317.96
p1968
aV573.36
p1969
aV500.35
p1970
aV338.98
p1971
aV381.77
p1972
aV389.58
p1973
aV397.99
p1974
aV490.13
p1975
aV579.65
p1976
aV738.64
p1977
aV1055.65
p1978
aV485.78
p1979
aV317.65
p1980
aV317.01
p1981
aV317.01
p1982
aV317.01
p1983
aV317.01
p1984
aV317.01
p1985
aV317.01
p1986
aV317.01
p1987
aV317.01
p1988
aV420.89
p1989
aV1026.15
p1990
aV317.01
p1991
aV317.33
p1992
aV317.33
p1993
aV317.33
p1994
aV317.33
p1995
aV317.33
p1996
aV317.33
p1997
aV317.33
p1998
aV440.83
p1999
aV317.01
p2000
aV317.65
p2001
aV907.69
p2002
aV633.70
p2003
aV317.01
p2004
aV317.01
p2005
aV317.01
p2006
aV317.01
p2007
aV317.01
p2008
aV317.01
p2009
aV317.01
p2010
aV317.01
p2011
aV317.01
p2012
aV317.33
p2013
aV589.77
p2014
aV633.07
p2015
aV317.01
p2016
aV317.01
p2017
aV317.01
p2018
aV317.01
p2019
aV317.33
p2020
aV543.13
p2021
aV317.01
p2022
aV464.22
p2023
aV317.01
p2024
aV317.01
p2025
aV906.19
p2026
aV632.44
p2027
aV459.00
p2028
aV448.15
p2029
aV488.78
p2030
aV555.78
p2031
aV317.01
p2032
aV542.59
p2033
aV317.01
p2034
aV676.02
p2035
aV511.15
p2036
aV319.78
p2037
aV905.28
p2038
aV507.41
p2039
aV458.54
p2040
aV655.98
p2041
aV744.82
p2042
aV555.23
p2043
aV432.24
p2044
aV542.05
p2045
aV317.01
p2046
aV832.07
p2047
aV769.52
p2048
aV468.92
p2049
aV904.38
p2050
aV823.92
p2051
aV672.27
p2052
aV894.08
p2053
aV838.17
p2054
aV796.34
p2055
aV734.23
p2056
aV617.37
p2057
aV559.22
p2058
aV991.03
p2059
aV991.23
p2060
aV733.31
p2061
aV903.47
p2062
aV1056.70
p2063
aV900.24
p2064
aV1044.93
p2065
aV994.15
p2066
aV1007.78
p2067
aV958.95
p2068
aV875.99
p2069
aV860.64
p2070
aV1056.70
p2071
aV1056.70
p2072
aV998.55
p2073
aV902.57
p2074
aV1055.65
p2075
aV1056.70
p2076
aV1056.70
p2077
aV1056.70
p2078
aV1056.70
p2079
aV1056.70
p2080
aV1056.70
p2081
aV1056.70
p2082
aV1055.65
p2083
aV1055.65
p2084
aV1056.70
p2085
aV997.84
p2086
aV872.34
p2087
aV1055.65
p2088
aV757.69
p2089
aV829.62
p2090
aV1056.70
p2091
aV1056.70
p2092
aV1056.70
p2093
aV1056.70
p2094
aV1056.70
p2095
aV1056.70
p2096
aV1056.70
p2097
aV996.85
p2098
aV694.26
p2099
aV1054.59
p2100
aV1056.70
p2101
aV1056.70
p2102
aV857.56
p2103
aV837.97
p2104
aV837.11
p2105
aV909.94
p2106
aV1016.36
p2107
aV866.51
p2108
aV810.21
p2109
aV679.96
p2110
aV376.55
p2111
aV736.53
p2112
aV738.64
p2113
aV1056.70
p2114
aV553.88
p2115
aV520.12
p2116
aV519.26
p2117
aV592.02
p2118
aV698.33
p2119
aV548.63
p2120
aV492.38
p2121
aV362.27
p2122
aV376.17
p2123
aV691.19
p2124
aV576.84
p2125
aV853.98
p2126
aV365.78
p2127
aV489.41
p2128
aV518.74
p2129
aV420.86
p2130
aV506.04
p2131
aV357.09
p2132
aV476.72
p2133
aV350.80
p2134
aV375.80
p2135
aV373.49
p2136
aV434.37
p2137
aV781.28
p2138
aV317.01
p2139
aV387.64
p2140
aV465.27
p2141
aV353.78
p2142
aV447.28
p2143
aV317.01
p2144
aV464.51
p2145
aV317.33
p2146
aV375.42
p2147
aV485.23
p2148
aV433.93
p2149
aV743.39
p2150
aV317.01
p2151
aV317.01
p2152
aV428.71
p2153
aV317.01
p2154
aV448.76
p2155
aV331.69
p2156
aV317.33
p2157
aV317.01
p2158
aV375.05
p2159
aV484.74
p2160
aV433.50
p2161
aV767.26
p2162
aV380.47
p2163
aV364.01
p2164
aV465.47
p2165
aV377.97
p2166
aV508.83
p2167
aV408.85
p2168
aV317.01
p2169
aV467.12
p2170
aV374.67
p2171
aV484.26
p2172
aV545.29
p2173
aV799.29
p2174
aV438.03
p2175
aV420.15
p2176
aV493.54
p2177
aV432.76
p2178
aV563.33
p2179
aV484.80
p2180
aV362.94
p2181
aV466.65
p2182
aV374.30
p2183
aV384.53
p2184
aV544.75
p2185
aV848.46
p2186
aV437.59
p2187
aV478.42
p2188
aV554.19
p2189
aV502.17
p2190
aV623.66
p2191
aV571.48
p2192
aV362.58
p2193
aV610.03
p2194
aVjanuary
p2195
aVfebruary
p2196
aVmarch
p2197
aVapril
p2198
aVmay
p2199
aVjune
p2200
aVjuly
p2201
aVaugust
p2202
aVseptember
p2203
aVoctober
p2204
aVnovember
p2205
aVdecember
p2206
atp2207
ba(lp2208
g17
(g18
(dp2209
g20
g21
(g22
(I0
tp2210
g24
tp2211
Rp2212
(I1
(L25L
tp2213
g31
I00
(lp2214
I1
aI2
aI3
aI4
aI5
aI6
aI7
aI8
aI9
aI10
aI11
aI12
aI13
aI14
aI15
aI16
aI17
aI18
aI19
aI20
aI21
aI22
aI23
aI24
ag113
atp2215
bsg43
Nstp2216
Rp2217
a(dp2218
g86
(dp2219
g88
g1882
sg89
(lp2220
(dp2221
g92
g93
(I0
I25
L1L
tp2222
Rp2223
sg96
g1904
sasstp2224
bsbssg1176
(dp2225
g100
g2
(g3
g4
Ntp2226
Rp2227
(dp2228
g8
g9
sg10
g11
sg12
g2
(g13
g4
Ntp2229
Rp2230
((lp2231
g17
(g18
(dp2232
g20
g21
(g22
(I0
tp2233
g24
tp2234
Rp2235
(I1
(L25L
tp2236
g31
I00
(lp2237
I1
aI2
aI3
aI4
aI5
aI6
aI7
aI8
aI9
aI10
aI11
aI12
aI13
aI14
aI15
aI16
aI17
aI18
aI19
aI20
aI21
aI22
aI23
aI24
ag113
atp2238
bsg43
Nstp2239
Rp2240
ag17
(g46
(dp2241
g20
g21
(g22
(I0
tp2242
g24
tp2243
Rp2244
(I1
(L12L
tp2245
g54
I00
S'\x00\x00\x00\x00\x00\x00\x00\x00\x01\x00\x00\x00\x00\x00\x00\x00\x02\x00\x00\x00\x00\x00\x00\x00\x03\x00\x00\x00\x00\x00\x00\x00\x04\x00\x00\x00\x00\x00\x00\x00\x05\x00\x00\x00\x00\x00\x00\x00\x06\x00\x00\x00\x00\x00\x00\x00\x07\x00\x00\x00\x00\x00\x00\x00\x08\x00\x00\x00\x00\x00\x00\x00\t\x00\x00\x00\x00\x00\x00\x00\n\x00\x00\x00\x00\x00\x00\x00\x0b\x00\x00\x00\x00\x00\x00\x00'
p2246
tp2247
bsg43
Nstp2248
Rp2249
a(lp2250
g21
(g22
(I0
tp2251
g24
tp2252
Rp2253
(I1
(L25L
L12L
tp2254
g31
I00
(lp2255
V0.00
p2256
aV0.00
p2257
aV0.00
p2258
aV285.31
p2259
aV285.31
p2260
aV0.00
p2261
aV0.00
p2262
aV0.00
p2263
aV0.00
p2264
aV0.00
p2265
aV0.00
p2266
aV0.00
p2267
aV0.00
p2268
aV0.00
p2269
aV179.25
p2270
aV0.00
p2271
aV0.00
p2272
aV285.31
p2273
aV0.00
p2274
aV0.00
p2275
aV285.31
p2276
aV285.31
p2277
aV0.00
p2278
aV285.31
p2279
aV0.00
p2280
aV283.60
p2281
aV0.00
p2282
aV0.00
p2283
aV0.00
p2284
aV0.00
p2285
aV0.00
p2286
aV0.00
p2287
aV0.00
p2288
aV0.00
p2289
aV0.00
p2290
aV0.00
p2291
aV0.00
p2292
aV0.00
p2293
aV0.00
p2294
aV0.00
p2295
aV0.00
p2296
aV80.91
p2297
aV285.31
p2298
aV0.00
p2299
aV0.00
p2300
aV285.31
p2301
aV285.31
p2302
aV0.00
p2303
aV285.31
p2304
aV0.00
p2305
aV0.00
p2306
aV0.00
p2307
aV233.17
p2308
aV0.00
p2309
aV0.00
p2310
aV285.31
p2311
aV0.00
p2312
aV0.00
p2313
aV0.00
p2314
aV0.00
p2315
aV0.00
p2316
aV0.00
p2317
aV0.00
p2318
aV0.00
p2319
aV0.00
p2320
aV41.59
p2321
aV73.19
p2322
aV71.40
p2323
aV38.87
p2324
aV0.00
p2325
aV285.31
p2326
aV285.31
p2327
aV0.00
p2328
aV283.31
p2329
aV0.00
p2330
aV285.31
p2331
aV0.00
p2332
aV0.00
p2333
aV26.12
p2334
aV0.00
p2335
aV53.92
p2336
aV0.00
p2337
aV0.00
p2338
aV0.00
p2339
aV0.00
p2340
aV0.00
p2341
aV285.31
p2342
aV285.31
p2343
aV0.00
p2344
aV0.00
p2345
aV0.00
p2346
aV60.63
p2347
aV0.00
p2348
aV220.97
p2349
aV285.31
p2350
aV0.00
p2351
aV285.31
p2352
aV0.00
p2353
aV139.20
p2354
aV53.39
p2355
aV0.00
p2356
aV0.00
p2357
aV0.00
p2358
aV0.00
p2359
aV0.00
p2360
aV34.75
p2361
aV232.30
p2362
aV0.00
p2363
aV0.00
p2364
aV0.00
p2365
aV0.00
p2366
aV0.00
p2367
aV0.00
p2368
aV0.00
p2369
aV0.00
p2370
aV0.00
p2371
aV0.00
p2372
aV0.00
p2373
aV0.00
p2374
aV148.77
p2375
aV0.00
p2376
aV0.00
p2377
aV0.00
p2378
aV0.00
p2379
aV0.00
p2380
aV0.00
p2381
aV0.00
p2382
aV0.00
p2383
aV0.00
p2384
aV0.00
p2385
aV0.00
p2386
aV0.00
p2387
aV0.00
p2388
aV0.00
p2389
aV0.00
p2390
aV0.00
p2391
aV0.00
p2392
aV0.00
p2393
aV0.00
p2394
aV0.00
p2395
aV0.00
p2396
aV0.00
p2397
aV0.00
p2398
aV0.00
p2399
aV0.00
p2400
aV0.00
p2401
aV0.00
p2402
aV0.00
p2403
aV0.00
p2404
aV0.00
p2405
aV0.00
p2406
aV0.00
p2407
aV0.00
p2408
aV0.00
p2409
aV0.00
p2410
aV22.68
p2411
aV0.00
p2412
aV0.00
p2413
aV0.00
p2414
aV0.00
p2415
aV0.00
p2416
aV0.00
p2417
aV0.00
p2418
aV0.00
p2419
aV0.00
p2420
aV0.00
p2421
aV0.00
p2422
aV0.00
p2423
aV0.00
p2424
aV0.00
p2425
aV0.00
p2426
aV0.00
p2427
aV0.00
p2428
aV0.00
p2429
aV0.00
p2430
aV0.00
p2431
aV0.00
p2432
aV0.00
p2433
aV0.00
p2434
aV0.00
p2435
aV0.00
p2436
aV0.00
p2437
aV0.00
p2438
aV0.00
p2439
aV42.98
p2440
aV0.00
p2441
aV0.00
p2442
aV0.00
p2443
aV116.52
p2444
aV285.31
p2445
aV0.00
p2446
aV27.37
p2447
aV0.00
p2448
aV0.00
p2449
aV0.00
p2450
aV0.00
p2451
aV285.31
p2452
aV285.31
p2453
aV285.31
p2454
aV92.72
p2455
aV250.75
p2456
aV271.39
p2457
aV209.76
p2458
aV63.85
p2459
aV109.85
p2460
aV285.31
p2461
aV285.31
p2462
aV0.00
p2463
aV285.31
p2464
aV75.00
p2465
aV244.80
p2466
aV285.31
p2467
aV285.31
p2468
aV105.87
p2469
aV33.86
p2470
aV285.31
p2471
aV0.00
p2472
aV84.25
p2473
aV285.31
p2474
aV285.31
p2475
aV0.00
p2476
aV285.31
p2477
aV0.00
p2478
aV285.31
p2479
aV10.48
p2480
aV0.00
p2481
aV0.00
p2482
aV0.00
p2483
aV0.00
p2484
aV285.31
p2485
aV0.00
p2486
aV0.00
p2487
aV0.00
p2488
aV17.02
p2489
aV285.31
p2490
aV0.00
p2491
aV0.00
p2492
aV0.00
p2493
aV285.31
p2494
aV285.31
p2495
aV0.00
p2496
aV0.00
p2497
aV0.00
p2498
aV0.00
p2499
aV0.00
p2500
aV0.00
p2501
aV0.00
p2502
aV0.00
p2503
aV0.00
p2504
aV0.00
p2505
aV285.31
p2506
aV0.00
p2507
aV285.31
p2508
aV285.31
p2509
aV0.00
p2510
aV0.00
p2511
aV0.00
p2512
aV0.00
p2513
aV0.00
p2514
aV0.00
p2515
aV0.00
p2516
aV0.00
p2517
aV0.00
p2518
aV0.00
p2519
aV0.00
p2520
aV0.00
p2521
aV0.00
p2522
aV0.00
p2523
aV0.00
p2524
aV0.00
p2525
aV0.00
p2526
aV0.00
p2527
aV0.00
p2528
aV0.00
p2529
aV285.31
p2530
aV285.31
p2531
aV285.31
p2532
aV284.45
p2533
aV285.31
p2534
aV0.00
p2535
aV0.00
p2536
aV0.00
p2537
aV285.31
p2538
aV0.00
p2539
aV0.00
p2540
aV0.00
p2541
aV0.00
p2542
aV0.00
p2543
aVjanuary
p2544
aVfebruary
p2545
aVmarch
p2546
aVapril
p2547
aVmay
p2548
aVjune
p2549
aVjuly
p2550
aVaugust
p2551
aVseptember
p2552
aVoctober
p2553
aVnovember
p2554
aVdecember
p2555
atp2556
ba(lp2557
g17
(g18
(dp2558
g20
g21
(g22
(I0
tp2559
g24
tp2560
Rp2561
(I1
(L25L
tp2562
g31
I00
(lp2563
I1
aI2
aI3
aI4
aI5
aI6
aI7
aI8
aI9
aI10
aI11
aI12
aI13
aI14
aI15
aI16
aI17
aI18
aI19
aI20
aI21
aI22
aI23
aI24
ag113
atp2564
bsg43
Nstp2565
Rp2566
a(dp2567
g86
(dp2568
g88
g2231
sg89
(lp2569
(dp2570
g92
g93
(I0
I25
L1L
tp2571
Rp2572
sg96
g2253
sasstp2573
bsbsg450
g2
(g3
g4
Ntp2574
Rp2575
(dp2576
g8
g9
sg10
g11
sg12
g2
(g13
g4
Ntp2577
Rp2578
((lp2579
g17
(g18
(dp2580
g20
g21
(g22
(I0
tp2581
g24
tp2582
Rp2583
(I1
(L25L
tp2584
g31
I00
(lp2585
I1
aI2
aI3
aI4
aI5
aI6
aI7
aI8
aI9
aI10
aI11
aI12
aI13
aI14
aI15
aI16
aI17
aI18
aI19
aI20
aI21
aI22
aI23
aI24
ag113
atp2586
bsg43
Nstp2587
Rp2588
ag17
(g46
(dp2589
g20
g21
(g22
(I0
tp2590
g24
tp2591
Rp2592
(I1
(L12L
tp2593
g54
I00
S'\x00\x00\x00\x00\x00\x00\x00\x00\x01\x00\x00\x00\x00\x00\x00\x00\x02\x00\x00\x00\x00\x00\x00\x00\x03\x00\x00\x00\x00\x00\x00\x00\x04\x00\x00\x00\x00\x00\x00\x00\x05\x00\x00\x00\x00\x00\x00\x00\x06\x00\x00\x00\x00\x00\x00\x00\x07\x00\x00\x00\x00\x00\x00\x00\x08\x00\x00\x00\x00\x00\x00\x00\t\x00\x00\x00\x00\x00\x00\x00\n\x00\x00\x00\x00\x00\x00\x00\x0b\x00\x00\x00\x00\x00\x00\x00'
p2594
tp2595
bsg43
Nstp2596
Rp2597
a(lp2598
g21
(g22
(I0
tp2599
g24
tp2600
Rp2601
(I1
(L25L
L12L
tp2602
g31
I00
(lp2603
V285.31
p2604
aV0.00
p2605
aV0.00
p2606
aV240.21
p2607
aV0.00
p2608
aV0.00
p2609
aV0.00
p2610
aV0.00
p2611
aV0.00
p2612
aV0.00
p2613
aV0.00
p2614
aV0.00
p2615
aV0.00
p2616
aV0.00
p2617
aV285.31
p2618
aV0.00
p2619
aV285.31
p2620
aV0.00
p2621
aV0.00
p2622
aV285.31
p2623
aV0.00
p2624
aV285.31
p2625
aV0.00
p2626
aV0.00
p2627
aV0.00
p2628
aV285.31
p2629
aV0.00
p2630
aV0.00
p2631
aV0.00
p2632
aV0.00
p2633
aV0.00
p2634
aV0.00
p2635
aV277.99
p2636
aV0.00
p2637
aV0.00
p2638
aV0.00
p2639
aV283.88
p2640
aV0.00
p2641
aV279.86
p2642
aV285.31
p2643
aV0.00
p2644
aV285.31
p2645
aV0.00
p2646
aV0.00
p2647
aV0.00
p2648
aV0.00
p2649
aV0.00
p2650
aV285.31
p2651
aV0.00
p2652
aV285.31
p2653
aV0.00
p2654
aV0.00
p2655
aV0.00
p2656
aV0.00
p2657
aV285.31
p2658
aV0.00
p2659
aV0.00
p2660
aV285.31
p2661
aV0.00
p2662
aV0.00
p2663
aV0.00
p2664
aV0.00
p2665
aV0.00
p2666
aV0.00
p2667
aV285.31
p2668
aV0.00
p2669
aV0.00
p2670
aV0.00
p2671
aV0.00
p2672
aV0.00
p2673
aV0.00
p2674
aV285.31
p2675
aV0.00
p2676
aV285.31
p2677
aV278.27
p2678
aV0.00
p2679
aV0.00
p2680
aV0.00
p2681
aV285.31
p2682
aV0.00
p2683
aV0.00
p2684
aV0.00
p2685
aV0.00
p2686
aV0.00
p2687
aV0.00
p2688
aV0.00
p2689
aV0.00
p2690
aV0.00
p2691
aV138.13
p2692
aV119.34
p2693
aV0.00
p2694
aV130.02
p2695
aV0.00
p2696
aV0.00
p2697
aV245.88
p2698
aV0.00
p2699
aV66.63
p2700
aV0.00
p2701
aV0.00
p2702
aV0.00
p2703
aV0.00
p2704
aV0.00
p2705
aV0.00
p2706
aV0.00
p2707
aV0.00
p2708
aV0.00
p2709
aV37.11
p2710
aV0.00
p2711
aV0.00
p2712
aV0.00
p2713
aV0.00
p2714
aV0.00
p2715
aV0.00
p2716
aV0.00
p2717
aV0.00
p2718
aV0.00
p2719
aV0.00
p2720
aV0.00
p2721
aV0.00
p2722
aV0.00
p2723
aV0.00
p2724
aV0.00
p2725
aV0.00
p2726
aV0.00
p2727
aV0.00
p2728
aV0.00
p2729
aV0.00
p2730
aV0.00
p2731
aV0.00
p2732
aV0.00
p2733
aV0.00
p2734
aV0.00
p2735
aV0.00
p2736
aV0.00
p2737
aV0.00
p2738
aV0.00
p2739
aV0.00
p2740
aV0.00
p2741
aV0.00
p2742
aV0.00
p2743
aV0.00
p2744
aV0.00
p2745
aV0.00
p2746
aV0.00
p2747
aV0.00
p2748
aV0.00
p2749
aV0.00
p2750
aV0.00
p2751
aV0.00
p2752
aV0.00
p2753
aV0.00
p2754
aV0.00
p2755
aV0.00
p2756
aV0.00
p2757
aV0.00
p2758
aV0.00
p2759
aV0.00
p2760
aV0.00
p2761
aV0.00
p2762
aV0.00
p2763
aV0.00
p2764
aV0.00
p2765
aV0.00
p2766
aV0.00
p2767
aV0.00
p2768
aV0.00
p2769
aV0.00
p2770
aV0.00
p2771
aV0.00
p2772
aV0.00
p2773
aV0.00
p2774
aV0.00
p2775
aV0.00
p2776
aV0.00
p2777
aV0.00
p2778
aV0.00
p2779
aV0.00
p2780
aV0.00
p2781
aV0.00
p2782
aV0.00
p2783
aV0.00
p2784
aV0.00
p2785
aV0.00
p2786
aV0.00
p2787
aV0.00
p2788
aV0.00
p2789
aV0.00
p2790
aV0.00
p2791
aV0.00
p2792
aV0.00
p2793
aV0.00
p2794
aV0.00
p2795
aV285.31
p2796
aV167.68
p2797
aV0.00
p2798
aV0.00
p2799
aV0.00
p2800
aV95.77
p2801
aV59.95
p2802
aV4.19
p2803
aV198.98
p2804
aV0.00
p2805
aV285.31
p2806
aV0.00
p2807
aV25.62
p2808
aV285.31
p2809
aV0.00
p2810
aV0.00
p2811
aV0.00
p2812
aV285.31
p2813
aV177.05
p2814
aV91.58
p2815
aV285.31
p2816
aV62.59
p2817
aV0.00
p2818
aV0.00
p2819
aV0.00
p2820
aV0.00
p2821
aV187.35
p2822
aV285.31
p2823
aV0.00
p2824
aV0.00
p2825
aV0.00
p2826
aV0.00
p2827
aV0.00
p2828
aV0.00
p2829
aV274.10
p2830
aV0.00
p2831
aV285.31
p2832
aV0.00
p2833
aV0.00
p2834
aV0.00
p2835
aV0.00
p2836
aV0.00
p2837
aV285.31
p2838
aV0.00
p2839
aV0.00
p2840
aV285.31
p2841
aV0.00
p2842
aV0.00
p2843
aV285.31
p2844
aV0.00
p2845
aV0.00
p2846
aV0.00
p2847
aV156.94
p2848
aV127.41
p2849
aV285.31
p2850
aV109.96
p2851
aV0.00
p2852
aV285.31
p2853
aV0.00
p2854
aV0.00
p2855
aV0.00
p2856
aV0.00
p2857
aV0.00
p2858
aV0.00
p2859
aV285.31
p2860
aV285.31
p2861
aV0.00
p2862
aV0.00
p2863
aV0.00
p2864
aV0.00
p2865
aV0.00
p2866
aV285.31
p2867
aV285.31
p2868
aV49.03
p2869
aV91.20
p2870
aV0.00
p2871
aV0.00
p2872
aV0.00
p2873
aV0.00
p2874
aV285.31
p2875
aV0.00
p2876
aV0.00
p2877
aV285.31
p2878
aV0.00
p2879
aV0.00
p2880
aV0.00
p2881
aV285.31
p2882
aV0.00
p2883
aV0.00
p2884
aV0.00
p2885
aV0.00
p2886
aV0.00
p2887
aV0.00
p2888
aV0.00
p2889
aV0.00
p2890
aV285.31
p2891
aVjanuary
p2892
aVfebruary
p2893
aVmarch
p2894
aVapril
p2895
aVmay
p2896
aVjune
p2897
aVjuly
p2898
aVaugust
p2899
aVseptember
p2900
aVoctober
p2901
aVnovember
p2902
aVdecember
p2903
atp2904
ba(lp2905
g17
(g18
(dp2906
g20
g21
(g22
(I0
tp2907
g24
tp2908
Rp2909
(I1
(L25L
tp2910
g31
I00
(lp2911
I1
aI2
aI3
aI4
aI5
aI6
aI7
aI8
aI9
aI10
aI11
aI12
aI13
aI14
aI15
aI16
aI17
aI18
aI19
aI20
aI21
aI22
aI23
aI24
ag113
atp2912
bsg43
Nstp2913
Rp2914
a(dp2915
g86
(dp2916
g88
g2579
sg89
(lp2917
(dp2918
g92
g93
(I0
I25
L1L
tp2919
Rp2920
sg96
g2601
sasstp2921
bsbsg799
g2
(g3
g4
Ntp2922
Rp2923
(dp2924
g8
g9
sg10
g11
sg12
g2
(g13
g4
Ntp2925
Rp2926
((lp2927
g17
(g18
(dp2928
g20
g21
(g22
(I0
tp2929
g24
tp2930
Rp2931
(I1
(L25L
tp2932
g31
I00
(lp2933
I1
aI2
aI3
aI4
aI5
aI6
aI7
aI8
aI9
aI10
aI11
aI12
aI13
aI14
aI15
aI16
aI17
aI18
aI19
aI20
aI21
aI22
aI23
aI24
ag113
atp2934
bsg43
Nstp2935
Rp2936
ag17
(g46
(dp2937
g20
g21
(g22
(I0
tp2938
g24
tp2939
Rp2940
(I1
(L12L
tp2941
g54
I00
S'\x00\x00\x00\x00\x00\x00\x00\x00\x01\x00\x00\x00\x00\x00\x00\x00\x02\x00\x00\x00\x00\x00\x00\x00\x03\x00\x00\x00\x00\x00\x00\x00\x04\x00\x00\x00\x00\x00\x00\x00\x05\x00\x00\x00\x00\x00\x00\x00\x06\x00\x00\x00\x00\x00\x00\x00\x07\x00\x00\x00\x00\x00\x00\x00\x08\x00\x00\x00\x00\x00\x00\x00\t\x00\x00\x00\x00\x00\x00\x00\n\x00\x00\x00\x00\x00\x00\x00\x0b\x00\x00\x00\x00\x00\x00\x00'
p2942
tp2943
bsg43
Nstp2944
Rp2945
a(lp2946
g21
(g22
(I0
tp2947
g24
tp2948
Rp2949
(I1
(L25L
L12L
tp2950
g31
I00
(lp2951
V0.00
p2952
aV0.00
p2953
aV0.00
p2954
aV0.00
p2955
aV0.00
p2956
aV0.00
p2957
aV0.00
p2958
aV0.00
p2959
aV0.00
p2960
aV0.00
p2961
aV0.00
p2962
aV0.00
p2963
aV0.00
p2964
aV285.31
p2965
aV0.00
p2966
aV0.00
p2967
aV0.00
p2968
aV0.00
p2969
aV0.00
p2970
aV0.00
p2971
aV0.00
p2972
aV0.00
p2973
aV0.00
p2974
aV0.00
p2975
aV0.00
p2976
aV0.00
p2977
aV0.00
p2978
aV0.00
p2979
aV0.00
p2980
aV0.00
p2981
aV0.00
p2982
aV0.00
p2983
aV0.00
p2984
aV0.00
p2985
aV0.00
p2986
aV0.00
p2987
aV0.00
p2988
aV0.00
p2989
aV0.00
p2990
aV60.36
p2991
aV7.68
p2992
aV15.88
p2993
aV36.31
p2994
aV20.50
p2995
aV23.38
p2996
aV0.00
p2997
aV0.00
p2998
aV0.00
p2999
aV0.00
p3000
aV0.00
p3001
aV0.00
p3002
aV57.56
p3003
aV0.00
p3004
aV2.64
p3005
aV24.73
p3006
aV17.71
p3007
aV26.51
p3008
aV0.00
p3009
aV0.00
p3010
aV0.00
p3011
aV0.00
p3012
aV0.00
p3013
aV170.13
p3014
aV263.85
p3015
aV156.13
p3016
aV219.86
p3017
aV237.09
p3018
aV240.39
p3019
aV244.68
p3020
aV218.71
p3021
aV285.31
p3022
aV0.00
p3023
aV60.48
p3024
aV0.00
p3025
aV230.19
p3026
aV164.55
p3027
aV19.47
p3028
aV57.94
p3029
aV64.96
p3030
aV72.53
p3031
aV155.37
p3032
aV235.86
p3033
aV285.31
p3034
aV25.60
p3035
aV151.45
p3036
aV0.00
p3037
aV0.00
p3038
aV0.00
p3039
aV0.00
p3040
aV0.00
p3041
aV0.00
p3042
aV0.00
p3043
aV0.00
p3044
aV0.00
p3045
aV92.54
p3046
aV105.69
p3047
aV0.00
p3048
aV0.00
p3049
aV0.00
p3050
aV0.00
p3051
aV0.00
p3052
aV0.00
p3053
aV0.00
p3054
aV0.00
p3055
aV111.04
p3056
aV0.00
p3057
aV0.00
p3058
aV285.31
p3059
aV0.00
p3060
aV0.00
p3061
aV0.00
p3062
aV0.00
p3063
aV0.00
p3064
aV0.00
p3065
aV0.00
p3066
aV0.00
p3067
aV0.00
p3068
aV0.00
p3069
aV0.00
p3070
aV0.00
p3071
aV0.00
p3072
aV0.00
p3073
aV0.00
p3074
aV0.00
p3075
aV0.00
p3076
aV0.00
p3077
aV0.00
p3078
aV0.00
p3079
aV0.00
p3080
aV0.00
p3081
aV0.00
p3082
aV0.00
p3083
aV111.95
p3084
aV0.00
p3085
aV0.00
p3086
aV0.00
p3087
aV0.00
p3088
aV0.00
p3089
aV0.00
p3090
aV0.00
p3091
aV0.00
p3092
aV0.00
p3093
aV0.00
p3094
aV0.00
p3095
aV0.00
p3096
aV0.00
p3097
aV0.00
p3098
aV0.00
p3099
aV0.00
p3100
aV0.00
p3101
aV0.00
p3102
aV0.00
p3103
aV0.00
p3104
aV0.00
p3105
aV0.00
p3106
aV0.00
p3107
aV0.00
p3108
aV0.00
p3109
aV0.00
p3110
aV0.00
p3111
aV0.00
p3112
aV0.00
p3113
aV0.00
p3114
aV0.00
p3115
aV0.00
p3116
aV0.00
p3117
aV0.00
p3118
aV0.00
p3119
aV0.00
p3120
aV0.00
p3121
aV0.00
p3122
aV0.00
p3123
aV0.00
p3124
aV0.00
p3125
aV0.00
p3126
aV0.00
p3127
aV0.00
p3128
aV0.00
p3129
aV0.00
p3130
aV0.00
p3131
aV164.03
p3132
aV0.00
p3133
aV268.16
p3134
aV203.43
p3135
aV0.00
p3136
aV0.00
p3137
aV0.00
p3138
aV0.00
p3139
aV0.00
p3140
aV0.00
p3141
aV0.00
p3142
aV0.00
p3143
aV159.49
p3144
aV0.00
p3145
aV0.00
p3146
aV0.00
p3147
aV178.27
p3148
aV195.91
p3149
aV196.68
p3150
aV131.13
p3151
aV35.36
p3152
aV170.23
p3153
aV220.90
p3154
aV284.30
p3155
aV285.31
p3156
aV285.31
p3157
aV285.31
p3158
aV0.00
p3159
aV272.54
p3160
aV285.31
p3161
aV285.31
p3162
aV285.31
p3163
aV285.31
p3164
aV285.31
p3165
aV285.31
p3166
aV285.31
p3167
aV0.00
p3168
aV40.14
p3169
aV144.95
p3170
aV181.50
p3171
aV168.80
p3172
aV27.17
p3173
aV0.00
p3174
aV153.52
p3175
aV172.43
p3176
aV171.89
p3177
aV13.65
p3178
aV10.00
p3179
aV0.00
p3180
aV285.31
p3181
aV127.71
p3182
aV64.66
p3183
aV43.56
p3184
aV91.15
p3185
aV47.65
p3186
aV59.99
p3187
aV52.43
p3188
aV35.75
p3189
aV10.56
p3190
aV29.81
p3191
aV0.00
p3192
aV0.00
p3193
aV0.00
p3194
aV33.39
p3195
aV0.00
p3196
aV63.22
p3197
aV32.49
p3198
aV32.77
p3199
aV0.00
p3200
aV0.00
p3201
aV132.05
p3202
aV0.00
p3203
aV0.00
p3204
aV0.00
p3205
aV0.00
p3206
aV0.00
p3207
aV0.00
p3208
aV0.00
p3209
aV0.00
p3210
aV0.00
p3211
aV0.00
p3212
aV0.00
p3213
aV0.00
p3214
aV0.00
p3215
aV0.00
p3216
aV0.00
p3217
aV0.00
p3218
aV0.00
p3219
aV0.00
p3220
aV0.00
p3221
aV0.00
p3222
aV0.00
p3223
aV0.00
p3224
aV0.00
p3225
aV0.00
p3226
aV0.00
p3227
aV0.00
p3228
aV89.32
p3229
aV0.00
p3230
aV0.00
p3231
aV0.00
p3232
aV0.00
p3233
aV0.00
p3234
aV0.00
p3235
aV0.00
p3236
aV0.00
p3237
aV0.00
p3238
aV0.00
p3239
aVjanuary
p3240
aVfebruary
p3241
aVmarch
p3242
aVapril
p3243
aVmay
p3244
aVjune
p3245
aVjuly
p3246
aVaugust
p3247
aVseptember
p3248
aVoctober
p3249
aVnovember
p3250
aVdecember
p3251
atp3252
ba(lp3253
g17
(g18
(dp3254
g20
g21
(g22
(I0
tp3255
g24
tp3256
Rp3257
(I1
(L25L
tp3258
g31
I00
(lp3259
I1
aI2
aI3
aI4
aI5
aI6
aI7
aI8
aI9
aI10
aI11
aI12
aI13
aI14
aI15
aI16
aI17
aI18
aI19
aI20
aI21
aI22
aI23
aI24
ag113
atp3260
bsg43
Nstp3261
Rp3262
a(dp3263
g86
(dp3264
g88
g2927
sg89
(lp3265
(dp3266
g92
g93
(I0
I25
L1L
tp3267
Rp3268
sg96
g2949
sasstp3269
bsbssg1153
F47.0
sg1160
g2
(g3
g4
Ntp3270
Rp3271
(dp3272
g8
g9
sg10
g11
sg12
g2
(g13
g4
Ntp3273
Rp3274
((lp3275
g17
(g18
(dp3276
g20
g21
(g22
(I0
tp3277
g24
tp3278
Rp3279
(I1
(L6L
tp3280
g31
I00
(lp3281
VAge
p3282
aVExisting Capacity
p3283
aVLifetime
p3284
aVNew Capacity
p3285
aVTechnology
p3286
aVTotal Capacity
p3287
atp3288
bsg43
Nstp3289
Rp3290
ag17
(g46
(dp3291
g20
g21
(g22
(I0
tp3292
g24
tp3293
Rp3294
(I1
(L1L
tp3295
g54
I00
S'\x00\x00\x00\x00\x00\x00\x00\x00'
p3296
tp3297
bsg43
Nstp3298
Rp3299
a(lp3300
g21
(g22
(I0
tp3301
g24
tp3302
Rp3303
(I1
(L6L
L1L
tp3304
g31
I00
(lp3305
V""
p3306
ag68
aV5
p3307
aV1057
p3308
aV"Stationary Battery Capacity (kWh)"
p3309
aV1057
p3310
atp3311
ba(lp3312
g17
(g18
(dp3313
g20
g21
(g22
(I0
tp3314
g24
tp3315
Rp3316
(I1
(L6L
tp3317
g31
I00
(lp3318
g3282
ag3283
ag3284
ag3285
ag3286
ag3287
atp3319
bsg43
Nstp3320
Rp3321
a(dp3322
g86
(dp3323
g88
g3275
sg89
(lp3324
(dp3325
g92
g93
(I0
I6
L1L
tp3326
Rp3327
sg96
g3303
sasstp3328
bsbsg1173
(dp3329
g100
g2
(g3
g4
Ntp3330
Rp3331
(dp3332
g8
g9
sg10
g11
sg12
g2
(g13
g4
Ntp3333
Rp3334
((lp3335
g17
(g18
(dp3336
g20
g21
(g22
(I0
tp3337
g24
tp3338
Rp3339
(I1
(L25L
tp3340
g31
I00
(lp3341
I1
aI2
aI3
aI4
aI5
aI6
aI7
aI8
aI9
aI10
aI11
aI12
aI13
aI14
aI15
aI16
aI17
aI18
aI19
aI20
aI21
aI22
aI23
aI24
ag113
atp3342
bsg43
Nstp3343
Rp3344
ag17
(g46
(dp3345
g20
g21
(g22
(I0
tp3346
g24
tp3347
Rp3348
(I1
(L12L
tp3349
g54
I00
S'\x00\x00\x00\x00\x00\x00\x00\x00\x01\x00\x00\x00\x00\x00\x00\x00\x02\x00\x00\x00\x00\x00\x00\x00\x03\x00\x00\x00\x00\x00\x00\x00\x04\x00\x00\x00\x00\x00\x00\x00\x05\x00\x00\x00\x00\x00\x00\x00\x06\x00\x00\x00\x00\x00\x00\x00\x07\x00\x00\x00\x00\x00\x00\x00\x08\x00\x00\x00\x00\x00\x00\x00\t\x00\x00\x00\x00\x00\x00\x00\n\x00\x00\x00\x00\x00\x00\x00\x0b\x00\x00\x00\x00\x00\x00\x00'
p3350
tp3351
bsg43
Nstp3352
Rp3353
a(lp3354
g21
(g22
(I0
tp3355
g24
tp3356
Rp3357
(I1
(L25L
L12L
tp3358
g31
I00
(lp3359
V0.00
p3360
aV352.23
p3361
aV343.12
p3362
aV0.00
p3363
aV0.00
p3364
aV0.00
p3365
aV206.85
p3366
aV206.41
p3367
aV236.18
p3368
aV0.00
p3369
aV352.23
p3370
aV352.23
p3371
aV0.00
p3372
aV0.00
p3373
aV0.00
p3374
aV261.44
p3375
aV0.00
p3376
aV0.00
p3377
aV0.00
p3378
aV0.00
p3379
aV0.00
p3380
aV0.00
p3381
aV119.52
p3382
aV0.00
p3383
aV0.00
p3384
aV0.00
p3385
aV0.00
p3386
aV0.00
p3387
aV289.85
p3388
aV0.00
p3389
aV0.00
p3390
aV214.64
p3391
aV0.00
p3392
aV337.48
p3393
aV0.00
p3394
aV0.00
p3395
aV352.23
p3396
aV0.00
p3397
aV0.00
p3398
aV0.00
p3399
aV0.00
p3400
aV0.00
p3401
aV0.00
p3402
aV0.00
p3403
aV0.00
p3404
aV0.00
p3405
aV0.00
p3406
aV0.00
p3407
aV0.00
p3408
aV352.23
p3409
aV269.61
p3410
aV46.75
p3411
aV0.00
p3412
aV52.81
p3413
aV123.82
p3414
aV0.00
p3415
aV0.00
p3416
aV0.00
p3417
aV352.23
p3418
aV0.00
p3419
aV0.00
p3420
aV0.00
p3421
aV138.14
p3422
aV1.23
p3423
aV0.00
p3424
aV0.00
p3425
aV0.00
p3426
aV0.00
p3427
aV0.00
p3428
aV60.38
p3429
aV0.00
p3430
aV0.00
p3431
aV188.89
p3432
aV0.00
p3433
aV0.00
p3434
aV0.00
p3435
aV0.35
p3436
aV0.00
p3437
aV0.00
p3438
aV75.63
p3439
aV0.00
p3440
aV48.38
p3441
aV176.17
p3442
aV185.64
p3443
aV103.63
p3444
aV0.00
p3445
aV0.00
p3446
aV0.00
p3447
aV0.35
p3448
aV0.00
p3449
aV0.35
p3450
aV0.00
p3451
aV0.00
p3452
aV0.00
p3453
aV0.00
p3454
aV0.00
p3455
aV0.00
p3456
aV0.00
p3457
aV0.00
p3458
aV0.00
p3459
aV0.35
p3460
aV0.35
p3461
aV0.35
p3462
aV0.35
p3463
aV53.00
p3464
aV0.00
p3465
aV0.00
p3466
aV0.00
p3467
aV0.00
p3468
aV0.35
p3469
aV0.35
p3470
aV0.70
p3471
aV0.35
p3472
aV0.35
p3473
aV87.73
p3474
aV46.51
p3475
aV0.00
p3476
aV330.52
p3477
aV0.35
p3478
aV0.00
p3479
aV4.49
p3480
aV1.06
p3481
aV0.35
p3482
aV0.00
p3483
aV0.35
p3484
aV0.70
p3485
aV0.00
p3486
aV0.00
p3487
aV0.00
p3488
aV352.23
p3489
aV0.70
p3490
aV147.79
p3491
aV91.66
p3492
aV0.00
p3493
aV0.35
p3494
aV0.35
p3495
aV352.23
p3496
aV0.00
p3497
aV0.00
p3498
aV0.00
p3499
aV0.00
p3500
aV0.00
p3501
aV0.00
p3502
aV185.86
p3503
aV101.48
p3504
aV0.00
p3505
aV352.23
p3506
aV352.23
p3507
aV183.24
p3508
aV104.11
p3509
aV0.00
p3510
aV0.00
p3511
aV329.62
p3512
aV0.00
p3513
aV215.49
p3514
aV0.00
p3515
aV204.02
p3516
aV282.27
p3517
aV288.17
p3518
aV352.06
p3519
aV0.00
p3520
aV352.23
p3521
aV352.23
p3522
aV352.23
p3523
aV328.91
p3524
aV143.26
p3525
aV325.14
p3526
aV199.71
p3527
aV104.13
p3528
aV352.23
p3529
aV183.53
p3530
aV119.69
p3531
aV289.24
p3532
aV342.38
p3533
aV352.23
p3534
aV352.23
p3535
aV114.11
p3536
aV1.17
p3537
aV283.06
p3538
aV319.56
p3539
aV56.11
p3540
aV189.35
p3541
aV0.00
p3542
aV0.00
p3543
aV0.00
p3544
aV25.92
p3545
aV33.72
p3546
aV74.69
p3547
aV0.00
p3548
aV0.00
p3549
aV0.00
p3550
aV0.00
p3551
aV0.00
p3552
aV0.00
p3553
aV0.00
p3554
aV0.00
p3555
aV0.00
p3556
aV0.00
p3557
aV0.00
p3558
aV0.00
p3559
aV0.00
p3560
aV0.00
p3561
aV0.00
p3562
aV0.00
p3563
aV0.00
p3564
aV0.00
p3565
aV0.00
p3566
aV0.00
p3567
aV0.00
p3568
aV0.00
p3569
aV0.00
p3570
aV0.00
p3571
aV0.00
p3572
aV0.00
p3573
aV0.00
p3574
aV0.00
p3575
aV0.00
p3576
aV0.00
p3577
aV0.00
p3578
aV0.00
p3579
aV0.00
p3580
aV0.00
p3581
aV188.03
p3582
aV0.00
p3583
aV0.00
p3584
aV0.00
p3585
aV190.31
p3586
aV0.00
p3587
aV0.00
p3588
aV0.00
p3589
aV134.63
p3590
aV0.00
p3591
aV0.00
p3592
aV0.00
p3593
aV0.00
p3594
aV24.75
p3595
aV1.41
p3596
aV0.00
p3597
aV0.00
p3598
aV0.00
p3599
aV0.00
p3600
aV343.78
p3601
aV107.71
p3602
aV0.00
p3603
aV67.93
p3604
aV0.00
p3605
aV68.48
p3606
aV0.00
p3607
aV0.00
p3608
aV0.00
p3609
aV0.00
p3610
aV337.65
p3611
aV0.00
p3612
aV0.00
p3613
aV0.00
p3614
aV0.00
p3615
aV0.00
p3616
aV0.00
p3617
aV220.78
p3618
aV0.00
p3619
aV0.00
p3620
aV0.00
p3621
aV352.23
p3622
aV21.29
p3623
aV352.23
p3624
aV352.23
p3625
aV0.00
p3626
aV221.58
p3627
aV226.97
p3628
aV221.09
p3629
aV213.24
p3630
aV0.00
p3631
aV0.00
p3632
aV276.98
p3633
aV0.00
p3634
aV0.00
p3635
aV0.00
p3636
aV0.00
p3637
aV0.00
p3638
aV139.64
p3639
aV0.00
p3640
aV234.48
p3641
aV0.00
p3642
aV0.00
p3643
aV235.02
p3644
aV304.09
p3645
aV352.23
p3646
aV352.23
p3647
aVjanuary
p3648
aVfebruary
p3649
aVmarch
p3650
aVapril
p3651
aVmay
p3652
aVjune
p3653
aVjuly
p3654
aVaugust
p3655
aVseptember
p3656
aVoctober
p3657
aVnovember
p3658
aVdecember
p3659
atp3660
ba(lp3661
g17
(g18
(dp3662
g20
g21
(g22
(I0
tp3663
g24
tp3664
Rp3665
(I1
(L25L
tp3666
g31
I00
(lp3667
I1
aI2
aI3
aI4
aI5
aI6
aI7
aI8
aI9
aI10
aI11
aI12
aI13
aI14
aI15
aI16
aI17
aI18
aI19
aI20
aI21
aI22
aI23
aI24
ag113
atp3668
bsg43
Nstp3669
Rp3670
a(dp3671
g86
(dp3672
g88
g3335
sg89
(lp3673
(dp3674
g92
g93
(I0
I25
L1L
tp3675
Rp3676
sg96
g3357
sasstp3677
bsbsg450
g2
(g3
g4
Ntp3678
Rp3679
(dp3680
g8
g9
sg10
g11
sg12
g2
(g13
g4
Ntp3681
Rp3682
((lp3683
g17
(g18
(dp3684
g20
g21
(g22
(I0
tp3685
g24
tp3686
Rp3687
(I1
(L25L
tp3688
g31
I00
(lp3689
I1
aI2
aI3
aI4
aI5
aI6
aI7
aI8
aI9
aI10
aI11
aI12
aI13
aI14
aI15
aI16
aI17
aI18
aI19
aI20
aI21
aI22
aI23
aI24
ag113
atp3690
bsg43
Nstp3691
Rp3692
ag17
(g46
(dp3693
g20
g21
(g22
(I0
tp3694
g24
tp3695
Rp3696
(I1
(L12L
tp3697
g54
I00
S'\x00\x00\x00\x00\x00\x00\x00\x00\x01\x00\x00\x00\x00\x00\x00\x00\x02\x00\x00\x00\x00\x00\x00\x00\x03\x00\x00\x00\x00\x00\x00\x00\x04\x00\x00\x00\x00\x00\x00\x00\x05\x00\x00\x00\x00\x00\x00\x00\x06\x00\x00\x00\x00\x00\x00\x00\x07\x00\x00\x00\x00\x00\x00\x00\x08\x00\x00\x00\x00\x00\x00\x00\t\x00\x00\x00\x00\x00\x00\x00\n\x00\x00\x00\x00\x00\x00\x00\x0b\x00\x00\x00\x00\x00\x00\x00'
p3698
tp3699
bsg43
Nstp3700
Rp3701
a(lp3702
g21
(g22
(I0
tp3703
g24
tp3704
Rp3705
(I1
(L25L
L12L
tp3706
g31
I00
(lp3707
V0.00
p3708
aV352.23
p3709
aV0.00
p3710
aV0.00
p3711
aV197.38
p3712
aV174.27
p3713
aV0.00
p3714
aV0.00
p3715
aV0.00
p3716
aV0.00
p3717
aV0.00
p3718
aV245.95
p3719
aV352.23
p3720
aV1.17
p3721
aV0.00
p3722
aV0.00
p3723
aV0.00
p3724
aV19.75
p3725
aV125.76
p3726
aV0.00
p3727
aV0.00
p3728
aV0.00
p3729
aV1.06
p3730
aV0.00
p3731
aV0.00
p3732
aV0.00
p3733
aV346.55
p3734
aV0.00
p3735
aV0.00
p3736
aV0.00
p3737
aV128.72
p3738
aV0.00
p3739
aV0.00
p3740
aV271.56
p3741
aV0.00
p3742
aV0.00
p3743
aV0.00
p3744
aV239.64
p3745
aV0.00
p3746
aV0.00
p3747
aV0.00
p3748
aV0.00
p3749
aV122.77
p3750
aV0.00
p3751
aV0.00
p3752
aV79.78
p3753
aV0.00
p3754
aV0.00
p3755
aV84.35
p3756
aV0.00
p3757
aV345.64
p3758
aV0.00
p3759
aV240.48
p3760
aV19.04
p3761
aV0.00
p3762
aV0.00
p3763
aV1.41
p3764
aV0.00
p3765
aV352.23
p3766
aV352.23
p3767
aV0.00
p3768
aV0.00
p3769
aV0.00
p3770
aV0.00
p3771
aV0.00
p3772
aV130.02
p3773
aV0.00
p3774
aV0.00
p3775
aV0.00
p3776
aV0.00
p3777
aV0.00
p3778
aV0.00
p3779
aV0.00
p3780
aV0.00
p3781
aV0.00
p3782
aV0.70
p3783
aV171.41
p3784
aV0.00
p3785
aV0.00
p3786
aV49.58
p3787
aV0.00
p3788
aV0.70
p3789
aV0.00
p3790
aV0.70
p3791
aV0.00
p3792
aV0.00
p3793
aV0.00
p3794
aV0.00
p3795
aV0.00
p3796
aV0.00
p3797
aV0.35
p3798
aV0.00
p3799
aV0.00
p3800
aV0.00
p3801
aV0.00
p3802
aV0.00
p3803
aV0.00
p3804
aV0.35
p3805
aV0.35
p3806
aV1.06
p3807
aV0.35
p3808
aV0.35
p3809
aV0.35
p3810
aV0.35
p3811
aV0.35
p3812
aV0.35
p3813
aV0.00
p3814
aV0.35
p3815
aV43.87
p3816
aV0.35
p3817
aV1.06
p3818
aV0.00
p3819
aV0.35
p3820
aV0.35
p3821
aV1.06
p3822
aV0.35
p3823
aV352.23
p3824
aV0.35
p3825
aV209.55
p3826
aV0.35
p3827
aV200.66
p3828
aV0.35
p3829
aV0.00
p3830
aV0.00
p3831
aV1.06
p3832
aV352.23
p3833
aV0.00
p3834
aV0.35
p3835
aV0.00
p3836
aV0.35
p3837
aV352.23
p3838
aV0.35
p3839
aV282.21
p3840
aV0.35
p3841
aV0.00
p3842
aV0.35
p3843
aV0.00
p3844
aV0.00
p3845
aV0.00
p3846
aV0.35
p3847
aV0.00
p3848
aV0.35
p3849
aV0.00
p3850
aV0.35
p3851
aV261.08
p3852
aV0.35
p3853
aV0.35
p3854
aV0.35
p3855
aV0.00
p3856
aV181.93
p3857
aV0.35
p3858
aV0.35
p3859
aV0.00
p3860
aV119.06
p3861
aV0.00
p3862
aV42.40
p3863
aV0.00
p3864
aV119.06
p3865
aV313.21
p3866
aV352.23
p3867
aV352.23
p3868
aV0.00
p3869
aV165.73
p3870
aV352.23
p3871
aV352.23
p3872
aV352.23
p3873
aV172.88
p3874
aV352.23
p3875
aV38.55
p3876
aV352.23
p3877
aV352.23
p3878
aV203.67
p3879
aV275.76
p3880
aV0.00
p3881
aV352.23
p3882
aV119.29
p3883
aV1.74
p3884
aV352.23
p3885
aV0.00
p3886
aV352.23
p3887
aV1.17
p3888
aV352.23
p3889
aV158.47
p3890
aV267.94
p3891
aV195.92
p3892
aV292.13
p3893
aV305.65
p3894
aV352.23
p3895
aV120.94
p3896
aV0.00
p3897
aV93.03
p3898
aV77.61
p3899
aV0.00
p3900
aV0.00
p3901
aV1.17
p3902
aV0.00
p3903
aV1.17
p3904
aV0.00
p3905
aV0.00
p3906
aV0.00
p3907
aV0.00
p3908
aV2.35
p3909
aV0.00
p3910
aV1.17
p3911
aV0.00
p3912
aV0.00
p3913
aV0.00
p3914
aV2.35
p3915
aV1.17
p3916
aV0.00
p3917
aV0.00
p3918
aV0.00
p3919
aV0.00
p3920
aV0.00
p3921
aV227.56
p3922
aV0.00
p3923
aV273.12
p3924
aV0.00
p3925
aV0.00
p3926
aV0.00
p3927
aV0.00
p3928
aV0.00
p3929
aV268.17
p3930
aV121.63
p3931
aV0.00
p3932
aV79.54
p3933
aV0.00
p3934
aV0.00
p3935
aV0.00
p3936
aV275.21
p3937
aV0.00
p3938
aV0.00
p3939
aV0.00
p3940
aV163.68
p3941
aV0.00
p3942
aV1.17
p3943
aV0.00
p3944
aV0.00
p3945
aV0.00
p3946
aV0.00
p3947
aV0.00
p3948
aV0.00
p3949
aV235.52
p3950
aV0.00
p3951
aV0.00
p3952
aV0.00
p3953
aV0.00
p3954
aV0.00
p3955
aV0.00
p3956
aV0.00
p3957
aV0.00
p3958
aV0.00
p3959
aV352.23
p3960
aV0.00
p3961
aV0.00
p3962
aV0.00
p3963
aV0.00
p3964
aV0.00
p3965
aV0.00
p3966
aV137.96
p3967
aV127.43
p3968
aV0.00
p3969
aV0.00
p3970
aV0.00
p3971
aV0.00
p3972
aV0.00
p3973
aV0.00
p3974
aV0.00
p3975
aV0.00
p3976
aV0.00
p3977
aV123.38
p3978
aV0.00
p3979
aV0.00
p3980
aV0.00
p3981
aV0.00
p3982
aV0.00
p3983
aV352.23
p3984
aV0.00
p3985
aV0.00
p3986
aV188.25
p3987
aV0.00
p3988
aV161.18
p3989
aV122.99
p3990
aV0.00
p3991
aV0.00
p3992
aV242.57
p3993
aV0.00
p3994
aV0.00
p3995
aVjanuary
p3996
aVfebruary
p3997
aVmarch
p3998
aVapril
p3999
aVmay
p4000
aVjune
p4001
aVjuly
p4002
aVaugust
p4003
aVseptember
p4004
aVoctober
p4005
aVnovember
p4006
aVdecember
p4007
atp4008
ba(lp4009
g17
(g18
(dp4010
g20
g21
(g22
(I0
tp4011
g24
tp4012
Rp4013
(I1
(L25L
tp4014
g31
I00
(lp4015
I1
aI2
aI3
aI4
aI5
aI6
aI7
aI8
aI9
aI10
aI11
aI12
aI13
aI14
aI15
aI16
aI17
aI18
aI19
aI20
aI21
aI22
aI23
aI24
ag113
atp4016
bsg43
Nstp4017
Rp4018
a(dp4019
g86
(dp4020
g88
g3683
sg89
(lp4021
(dp4022
g92
g93
(I0
I25
L1L
tp4023
Rp4024
sg96
g3705
sasstp4025
bsbsg799
g2
(g3
g4
Ntp4026
Rp4027
(dp4028
g8
g9
sg10
g11
sg12
g2
(g13
g4
Ntp4029
Rp4030
((lp4031
g17
(g18
(dp4032
g20
g21
(g22
(I0
tp4033
g24
tp4034
Rp4035
(I1
(L25L
tp4036
g31
I00
(lp4037
I1
aI2
aI3
aI4
aI5
aI6
aI7
aI8
aI9
aI10
aI11
aI12
aI13
aI14
aI15
aI16
aI17
aI18
aI19
aI20
aI21
aI22
aI23
aI24
ag113
atp4038
bsg43
Nstp4039
Rp4040
ag17
(g46
(dp4041
g20
g21
(g22
(I0
tp4042
g24
tp4043
Rp4044
(I1
(L12L
tp4045
g54
I00
S'\x00\x00\x00\x00\x00\x00\x00\x00\x01\x00\x00\x00\x00\x00\x00\x00\x02\x00\x00\x00\x00\x00\x00\x00\x03\x00\x00\x00\x00\x00\x00\x00\x04\x00\x00\x00\x00\x00\x00\x00\x05\x00\x00\x00\x00\x00\x00\x00\x06\x00\x00\x00\x00\x00\x00\x00\x07\x00\x00\x00\x00\x00\x00\x00\x08\x00\x00\x00\x00\x00\x00\x00\t\x00\x00\x00\x00\x00\x00\x00\n\x00\x00\x00\x00\x00\x00\x00\x0b\x00\x00\x00\x00\x00\x00\x00'
p4046
tp4047
bsg43
Nstp4048
Rp4049
a(lp4050
g21
(g22
(I0
tp4051
g24
tp4052
Rp4053
(I1
(L25L
L12L
tp4054
g31
I00
(lp4055
V0.00
p4056
aV279.40
p4057
aV125.53
p4058
aV28.32
p4059
aV26.11
p4060
aV54.71
p4061
aV60.24
p4062
aV81.67
p4063
aV76.37
p4064
aV96.01
p4065
aV227.33
p4066
aV307.44
p4067
aV0.00
p4068
aV0.00
p4069
aV66.40
p4070
aV33.77
p4071
aV69.76
p4072
aV63.65
p4073
aV64.65
p4074
aV73.27
p4075
aV79.43
p4076
aV56.47
p4077
aV0.00
p4078
aV0.00
p4079
aV0.00
p4080
aV0.00
p4081
aV0.00
p4082
aV28.23
p4083
aV0.00
p4084
aV72.44
p4085
aV64.60
p4086
aV77.45
p4087
aV64.45
p4088
aV101.68
p4089
aV230.40
p4090
aV0.00
p4091
aV202.04
p4092
aV0.00
p4093
aV54.52
p4094
aV0.00
p4095
aV0.00
p4096
aV0.00
p4097
aV0.00
p4098
aV0.00
p4099
aV0.00
p4100
aV15.75
p4101
aV176.68
p4102
aV0.00
p4103
aV0.00
p4104
aV0.00
p4105
aV0.00
p4106
aV0.00
p4107
aV0.09
p4108
aV0.00
p4109
aV0.00
p4110
aV0.00
p4111
aV0.00
p4112
aV14.04
p4113
aV140.40
p4114
aV193.48
p4115
aV0.00
p4116
aV1.41
p4117
aV0.00
p4118
aV0.00
p4119
aV0.00
p4120
aV0.00
p4121
aV0.00
p4122
aV0.00
p4123
aV0.00
p4124
aV0.00
p4125
aV0.00
p4126
aV0.00
p4127
aV0.00
p4128
aV0.00
p4129
aV0.00
p4130
aV0.00
p4131
aV0.00
p4132
aV0.00
p4133
aV0.00
p4134
aV0.00
p4135
aV0.00
p4136
aV0.00
p4137
aV0.00
p4138
aV0.00
p4139
aV0.00
p4140
aV0.00
p4141
aV0.70
p4142
aV0.70
p4143
aV0.70
p4144
aV0.70
p4145
aV0.70
p4146
aV0.70
p4147
aV137.93
p4148
aV0.35
p4149
aV0.00
p4150
aV0.00
p4151
aV352.23
p4152
aV0.00
p4153
aV0.00
p4154
aV0.00
p4155
aV0.00
p4156
aV0.00
p4157
aV0.00
p4158
aV0.00
p4159
aV0.00
p4160
aV0.35
p4161
aV0.00
p4162
aV0.00
p4163
aV0.00
p4164
aV0.35
p4165
aV0.35
p4166
aV0.35
p4167
aV0.35
p4168
aV0.70
p4169
aV251.60
p4170
aV0.35
p4171
aV163.92
p4172
aV0.35
p4173
aV0.00
p4174
aV352.23
p4175
aV0.00
p4176
aV158.11
p4177
aV146.06
p4178
aV191.21
p4179
aV265.66
p4180
aV0.00
p4181
aV0.00
p4182
aV0.35
p4183
aV235.85
p4184
aV216.07
p4185
aV3.43
p4186
aV0.00
p4187
aV0.00
p4188
aV0.00
p4189
aV231.41
p4190
aV285.03
p4191
aV0.00
p4192
aV128.39
p4193
aV0.00
p4194
aV0.35
p4195
aV174.15
p4196
aV287.64
p4197
aV166.07
p4198
aV0.00
p4199
aV352.23
p4200
aV237.99
p4201
aV265.28
p4202
aV104.55
p4203
aV268.51
p4204
aV336.02
p4205
aV84.30
p4206
aV269.47
p4207
aV177.55
p4208
aV247.20
p4209
aV294.29
p4210
aV0.00
p4211
aV259.57
p4212
aV254.04
p4213
aV168.62
p4214
aV174.24
p4215
aV235.83
p4216
aV250.51
p4217
aV288.04
p4218
aV335.54
p4219
aV74.07
p4220
aV73.85
p4221
aV295.53
p4222
aV0.00
p4223
aV0.00
p4224
aV174.85
p4225
aV14.24
p4226
aV70.60
p4227
aV55.48
p4228
aV109.68
p4229
aV201.77
p4230
aV218.80
p4231
aV0.00
p4232
aV0.00
p4233
aV65.72
p4234
aV106.87
p4235
aV0.00
p4236
aV0.00
p4237
aV0.00
p4238
aV0.00
p4239
aV1.17
p4240
aV1.17
p4241
aV1.17
p4242
aV1.17
p4243
aV2.35
p4244
aV2.35
p4245
aV1.17
p4246
aV0.00
p4247
aV0.00
p4248
aV0.00
p4249
aV333.07
p4250
aV253.24
p4251
aV0.00
p4252
aV0.00
p4253
aV0.00
p4254
aV0.00
p4255
aV0.00
p4256
aV0.00
p4257
aV0.00
p4258
aV0.00
p4259
aV0.00
p4260
aV0.00
p4261
aV0.00
p4262
aV1.17
p4263
aV0.00
p4264
aV0.00
p4265
aV0.00
p4266
aV0.00
p4267
aV0.00
p4268
aV0.00
p4269
aV0.00
p4270
aV0.00
p4271
aV0.00
p4272
aV0.00
p4273
aV0.00
p4274
aV0.00
p4275
aV0.00
p4276
aV0.00
p4277
aV0.00
p4278
aV0.00
p4279
aV0.00
p4280
aV0.00
p4281
aV0.00
p4282
aV0.00
p4283
aV0.00
p4284
aV0.00
p4285
aV0.00
p4286
aV0.00
p4287
aV0.00
p4288
aV0.00
p4289
aV0.00
p4290
aV0.00
p4291
aV0.00
p4292
aV0.00
p4293
aV0.00
p4294
aV0.00
p4295
aV0.00
p4296
aV124.57
p4297
aV0.00
p4298
aV0.00
p4299
aV0.35
p4300
aV0.00
p4301
aV0.00
p4302
aV0.00
p4303
aV2.14
p4304
aV16.66
p4305
aV0.00
p4306
aV0.00
p4307
aV0.00
p4308
aV0.00
p4309
aV0.00
p4310
aV27.35
p4311
aV70.87
p4312
aV52.57
p4313
aV41.32
p4314
aV68.08
p4315
aV67.25
p4316
aV86.11
p4317
aV0.00
p4318
aV167.14
p4319
aV0.00
p4320
aV0.00
p4321
aV124.70
p4322
aV36.43
p4323
aV64.38
p4324
aV62.79
p4325
aV31.70
p4326
aV61.31
p4327
aV61.11
p4328
aV84.85
p4329
aV51.38
p4330
aV0.00
p4331
aV0.00
p4332
aV0.00
p4333
aV0.00
p4334
aV55.52
p4335
aV0.00
p4336
aV65.21
p4337
aV67.94
p4338
aV77.60
p4339
aV67.66
p4340
aV96.84
p4341
aV0.00
p4342
aV159.83
p4343
aVjanuary
p4344
aVfebruary
p4345
aVmarch
p4346
aVapril
p4347
aVmay
p4348
aVjune
p4349
aVjuly
p4350
aVaugust
p4351
aVseptember
p4352
aVoctober
p4353
aVnovember
p4354
aVdecember
p4355
atp4356
ba(lp4357
g17
(g18
(dp4358
g20
g21
(g22
(I0
tp4359
g24
tp4360
Rp4361
(I1
(L25L
tp4362
g31
I00
(lp4363
I1
aI2
aI3
aI4
aI5
aI6
aI7
aI8
aI9
aI10
aI11
aI12
aI13
aI14
aI15
aI16
aI17
aI18
aI19
aI20
aI21
aI22
aI23
aI24
ag113
atp4364
bsg43
Nstp4365
Rp4366
a(dp4367
g86
(dp4368
g88
g4031
sg89
(lp4369
(dp4370
g92
g93
(I0
I25
L1L
tp4371
Rp4372
sg96
g4053
sasstp4373
bsbssg1164
(dp4374
g100
g2
(g3
g4
Ntp4375
Rp4376
(dp4377
g8
g9
sg10
g11
sg12
g2
(g13
g4
Ntp4378
Rp4379
((lp4380
g17
(g18
(dp4381
g20
g21
(g22
(I0
tp4382
g24
tp4383
Rp4384
(I1
(L25L
tp4385
g31
I00
(lp4386
I1
aI2
aI3
aI4
aI5
aI6
aI7
aI8
aI9
aI10
aI11
aI12
aI13
aI14
aI15
aI16
aI17
aI18
aI19
aI20
aI21
aI22
aI23
aI24
ag113
atp4387
bsg43
Nstp4388
Rp4389
ag17
(g46
(dp4390
g20
g21
(g22
(I0
tp4391
g24
tp4392
Rp4393
(I1
(L12L
tp4394
g54
I00
S'\x00\x00\x00\x00\x00\x00\x00\x00\x01\x00\x00\x00\x00\x00\x00\x00\x02\x00\x00\x00\x00\x00\x00\x00\x03\x00\x00\x00\x00\x00\x00\x00\x04\x00\x00\x00\x00\x00\x00\x00\x05\x00\x00\x00\x00\x00\x00\x00\x06\x00\x00\x00\x00\x00\x00\x00\x07\x00\x00\x00\x00\x00\x00\x00\x08\x00\x00\x00\x00\x00\x00\x00\t\x00\x00\x00\x00\x00\x00\x00\n\x00\x00\x00\x00\x00\x00\x00\x0b\x00\x00\x00\x00\x00\x00\x00'
p4395
tp4396
bsg43
Nstp4397
Rp4398
a(lp4399
g21
(g22
(I0
tp4400
g24
tp4401
Rp4402
(I1
(L25L
L12L
tp4403
g31
I00
(lp4404
V0.00
p4405
aV0.00
p4406
aV0.00
p4407
aV0.00
p4408
aV0.00
p4409
aV0.00
p4410
aV0.00
p4411
aV0.00
p4412
aV0.00
p4413
aV0.00
p4414
aV0.00
p4415
aV0.00
p4416
aV0.00
p4417
aV0.00
p4418
aV0.00
p4419
aV0.00
p4420
aV0.00
p4421
aV0.00
p4422
aV0.00
p4423
aV0.00
p4424
aV0.00
p4425
aV0.00
p4426
aV0.00
p4427
aV0.00
p4428
aV0.00
p4429
aV0.00
p4430
aV0.00
p4431
aV0.00
p4432
aV0.00
p4433
aV0.00
p4434
aV0.00
p4435
aV0.00
p4436
aV0.00
p4437
aV0.00
p4438
aV0.00
p4439
aV0.00
p4440
aV0.00
p4441
aV0.00
p4442
aV0.00
p4443
aV0.00
p4444
aV0.00
p4445
aV0.00
p4446
aV0.00
p4447
aV0.00
p4448
aV0.00
p4449
aV0.00
p4450
aV0.00
p4451
aV0.00
p4452
aV0.00
p4453
aV0.00
p4454
aV0.00
p4455
aV0.00
p4456
aV0.00
p4457
aV0.00
p4458
aV0.00
p4459
aV0.00
p4460
aV0.00
p4461
aV0.00
p4462
aV0.00
p4463
aV0.00
p4464
aV0.00
p4465
aV0.00
p4466
aV0.00
p4467
aV0.69
p4468
aV60.46
p4469
aV0.00
p4470
aV0.00
p4471
aV0.00
p4472
aV0.00
p4473
aV0.00
p4474
aV0.00
p4475
aV0.00
p4476
aV0.00
p4477
aV0.00
p4478
aV45.51
p4479
aV218.51
p4480
aV315.39
p4481
aV299.52
p4482
aV278.43
p4483
aV268.75
p4484
aV178.61
p4485
aV90.09
p4486
aV0.00
p4487
aV0.00
p4488
aV18.90
p4489
aV261.48
p4490
aV521.75
p4491
aV685.11
p4492
aV809.46
p4493
aV830.70
p4494
aV753.21
p4495
aV818.00
p4496
aV691.93
p4497
aV705.43
p4498
aV349.41
p4499
aV47.69
p4500
aV755.49
p4501
aV930.80
p4502
aV1003.74
p4503
aV1119.17
p4504
aV1184.36
p4505
aV1166.50
p4506
aV1126.73
p4507
aV1170.30
p4508
aV1217.69
p4509
aV1118.87
p4510
aV825.88
p4511
aV718.59
p4512
aV934.41
p4513
aV1107.41
p4514
aV1185.24
p4515
aV1193.00
p4516
aV1194.16
p4517
aV1167.09
p4518
aV1217.48
p4519
aV1227.35
p4520
aV1167.84
p4521
aV1516.93
p4522
aV1112.42
p4523
aV938.33
p4524
aV1127.03
p4525
aV1149.97
p4526
aV1207.42
p4527
aV1198.97
p4528
aV1196.08
p4529
aV1168.88
p4530
aV1129.97
p4531
aV1182.54
p4532
aV1148.76
p4533
aV1549.35
p4534
aV1146.99
p4535
aV1268.92
p4536
aV1235.04
p4537
aV1171.25
p4538
aV1189.50
p4539
aV1163.33
p4540
aV1507.75
p4541
aV1129.58
p4542
aV1110.72
p4543
aV1145.58
p4544
aV1110.26
p4545
aV1157.16
p4546
aV1154.33
p4547
aV1330.44
p4548
aV1214.15
p4549
aV1144.07
p4550
aV1547.67
p4551
aV1548.10
p4552
aV1368.50
p4553
aV1264.87
p4554
aV1142.51
p4555
aV1181.96
p4556
aV1488.28
p4557
aV1184.93
p4558
aV1347.12
p4559
aV1099.97
p4560
aV1353.21
p4561
aV1462.25
p4562
aV1500.25
p4563
aV1549.66
p4564
aV1182.58
p4565
aV1515.85
p4566
aV1484.26
p4567
aV1542.01
p4568
aV1486.12
p4569
aV1326.71
p4570
aV1475.55
p4571
aV1366.34
p4572
aV1255.79
p4573
aV1536.29
p4574
aV1398.69
p4575
aV1321.56
p4576
aV1469.53
p4577
aV1508.82
p4578
aV1493.82
p4579
aV1552.51
p4580
aV1271.90
p4581
aV1185.07
p4582
aV1432.83
p4583
aV1492.63
p4584
aV1200.76
p4585
aV1375.11
p4586
aV1125.06
p4587
aV1200.85
p4588
aV1141.80
p4589
aV1201.84
p4590
aV1188.71
p4591
aV1289.16
p4592
aV1047.30
p4593
aV908.60
p4594
aV1026.83
p4595
aV1000.16
p4596
aV128.83
p4597
aV796.34
p4598
aV774.35
p4599
aV787.41
p4600
aV716.66
p4601
aV771.16
p4602
aV782.79
p4603
aV857.04
p4604
aV688.27
p4605
aV380.12
p4606
aV69.04
p4607
aV12.24
p4608
aV0.00
p4609
aV28.75
p4610
aV128.32
p4611
aV392.36
p4612
aV351.69
p4613
aV372.41
p4614
aV388.99
p4615
aV382.92
p4616
aV88.44
p4617
aV8.90
p4618
aV0.00
p4619
aV0.00
p4620
aV0.00
p4621
aV0.00
p4622
aV0.00
p4623
aV4.04
p4624
aV0.00
p4625
aV166.51
p4626
aV172.56
p4627
aV8.31
p4628
aV0.00
p4629
aV0.00
p4630
aV0.00
p4631
aV0.00
p4632
aV0.00
p4633
aV0.00
p4634
aV0.00
p4635
aV0.00
p4636
aV0.00
p4637
aV0.00
p4638
aV0.00
p4639
aV0.00
p4640
aV0.00
p4641
aV0.00
p4642
aV0.00
p4643
aV0.00
p4644
aV0.00
p4645
aV0.00
p4646
aV0.00
p4647
aV0.00
p4648
aV0.00
p4649
aV0.00
p4650
aV0.00
p4651
aV0.00
p4652
aV0.00
p4653
aV0.00
p4654
aV0.00
p4655
aV0.00
p4656
aV0.00
p4657
aV0.00
p4658
aV0.00
p4659
aV0.00
p4660
aV0.00
p4661
aV0.00
p4662
aV0.00
p4663
aV0.00
p4664
aV0.00
p4665
aV0.00
p4666
aV0.00
p4667
aV0.00
p4668
aV0.00
p4669
aV0.00
p4670
aV0.00
p4671
aV0.00
p4672
aV0.00
p4673
aV0.00
p4674
aV0.00
p4675
aV0.00
p4676
aV0.00
p4677
aV0.00
p4678
aV0.00
p4679
aV0.00
p4680
aV0.00
p4681
aV0.00
p4682
aV0.00
p4683
aV0.00
p4684
aV0.00
p4685
aV0.00
p4686
aV0.00
p4687
aV0.00
p4688
aV0.00
p4689
aV0.00
p4690
aV0.00
p4691
aV0.00
p4692
aVjanuary
p4693
aVfebruary
p4694
aVmarch
p4695
aVapril
p4696
aVmay
p4697
aVjune
p4698
aVjuly
p4699
aVaugust
p4700
aVseptember
p4701
aVoctober
p4702
aVnovember
p4703
aVdecember
p4704
atp4705
ba(lp4706
g17
(g18
(dp4707
g20
g21
(g22
(I0
tp4708
g24
tp4709
Rp4710
(I1
(L25L
tp4711
g31
I00
(lp4712
I1
aI2
aI3
aI4
aI5
aI6
aI7
aI8
aI9
aI10
aI11
aI12
aI13
aI14
aI15
aI16
aI17
aI18
aI19
aI20
aI21
aI22
aI23
aI24
ag113
atp4713
bsg43
Nstp4714
Rp4715
a(dp4716
g86
(dp4717
g88
g4380
sg89
(lp4718
(dp4719
g92
g93
(I0
I25
L1L
tp4720
Rp4721
sg96
g4402
sasstp4722
bsbsg450
g2
(g3
g4
Ntp4723
Rp4724
(dp4725
g8
g9
sg10
g11
sg12
g2
(g13
g4
Ntp4726
Rp4727
((lp4728
g17
(g18
(dp4729
g20
g21
(g22
(I0
tp4730
g24
tp4731
Rp4732
(I1
(L25L
tp4733
g31
I00
(lp4734
I1
aI2
aI3
aI4
aI5
aI6
aI7
aI8
aI9
aI10
aI11
aI12
aI13
aI14
aI15
aI16
aI17
aI18
aI19
aI20
aI21
aI22
aI23
aI24
ag113
atp4735
bsg43
Nstp4736
Rp4737
ag17
(g46
(dp4738
g20
g21
(g22
(I0
tp4739
g24
tp4740
Rp4741
(I1
(L12L
tp4742
g54
I00
S'\x00\x00\x00\x00\x00\x00\x00\x00\x01\x00\x00\x00\x00\x00\x00\x00\x02\x00\x00\x00\x00\x00\x00\x00\x03\x00\x00\x00\x00\x00\x00\x00\x04\x00\x00\x00\x00\x00\x00\x00\x05\x00\x00\x00\x00\x00\x00\x00\x06\x00\x00\x00\x00\x00\x00\x00\x07\x00\x00\x00\x00\x00\x00\x00\x08\x00\x00\x00\x00\x00\x00\x00\t\x00\x00\x00\x00\x00\x00\x00\n\x00\x00\x00\x00\x00\x00\x00\x0b\x00\x00\x00\x00\x00\x00\x00'
p4743
tp4744
bsg43
Nstp4745
Rp4746
a(lp4747
g21
(g22
(I0
tp4748
g24
tp4749
Rp4750
(I1
(L25L
L12L
tp4751
g31
I00
(lp4752
V0.00
p4753
aV0.00
p4754
aV0.00
p4755
aV0.00
p4756
aV0.00
p4757
aV0.00
p4758
aV0.00
p4759
aV0.00
p4760
aV0.00
p4761
aV0.00
p4762
aV0.00
p4763
aV0.00
p4764
aV0.00
p4765
aV0.00
p4766
aV0.00
p4767
aV0.00
p4768
aV0.00
p4769
aV0.00
p4770
aV0.00
p4771
aV0.00
p4772
aV0.00
p4773
aV0.00
p4774
aV0.00
p4775
aV0.00
p4776
aV0.00
p4777
aV0.00
p4778
aV0.00
p4779
aV0.00
p4780
aV0.00
p4781
aV0.00
p4782
aV0.00
p4783
aV0.00
p4784
aV0.00
p4785
aV0.00
p4786
aV0.00
p4787
aV0.00
p4788
aV0.00
p4789
aV0.00
p4790
aV0.00
p4791
aV0.00
p4792
aV0.00
p4793
aV0.00
p4794
aV0.00
p4795
aV0.00
p4796
aV0.00
p4797
aV0.00
p4798
aV0.00
p4799
aV0.00
p4800
aV0.00
p4801
aV0.00
p4802
aV0.00
p4803
aV0.00
p4804
aV0.00
p4805
aV0.00
p4806
aV0.00
p4807
aV0.00
p4808
aV0.00
p4809
aV0.00
p4810
aV0.00
p4811
aV0.00
p4812
aV0.00
p4813
aV0.00
p4814
aV0.00
p4815
aV0.69
p4816
aV60.46
p4817
aV0.00
p4818
aV0.00
p4819
aV0.00
p4820
aV0.00
p4821
aV0.00
p4822
aV0.00
p4823
aV0.00
p4824
aV0.00
p4825
aV0.00
p4826
aV45.51
p4827
aV218.51
p4828
aV315.39
p4829
aV299.52
p4830
aV278.43
p4831
aV268.75
p4832
aV178.61
p4833
aV90.09
p4834
aV0.00
p4835
aV0.00
p4836
aV18.90
p4837
aV261.48
p4838
aV521.75
p4839
aV685.11
p4840
aV809.46
p4841
aV830.70
p4842
aV753.21
p4843
aV818.00
p4844
aV691.93
p4845
aV705.43
p4846
aV349.41
p4847
aV47.69
p4848
aV755.49
p4849
aV834.71
p4850
aV904.19
p4851
aV982.44
p4852
aV1014.72
p4853
aV990.90
p4854
aV963.12
p4855
aV982.52
p4856
aV999.10
p4857
aV967.64
p4858
aV825.88
p4859
aV718.59
p4860
aV934.41
p4861
aV931.30
p4862
aV964.63
p4863
aV998.85
p4864
aV1026.45
p4865
aV987.50
p4866
aV966.38
p4867
aV977.47
p4868
aV1352.50
p4869
aV1002.57
p4870
aV1128.21
p4871
aV866.11
p4872
aV1127.03
p4873
aV975.44
p4874
aV989.43
p4875
aV1006.24
p4876
aV1030.50
p4877
aV1334.62
p4878
aV965.16
p4879
aV972.36
p4880
aV993.01
p4881
aV1016.33
p4882
aV1294.64
p4883
aV916.82
p4884
aV1235.04
p4885
aV1005.58
p4886
aV998.72
p4887
aV987.56
p4888
aV1009.57
p4889
aV962.27
p4890
aV948.23
p4891
aV957.36
p4892
aV975.45
p4893
aV1004.01
p4894
aV948.04
p4895
aV952.34
p4896
aV1214.15
p4897
aV998.18
p4898
aV996.79
p4899
aV977.38
p4900
aV1001.78
p4901
aV1139.76
p4902
aV936.73
p4903
aV948.51
p4904
aV970.91
p4905
aV1116.40
p4906
aV951.59
p4907
aV995.35
p4908
aV955.01
p4909
aV1117.52
p4910
aV1318.87
p4911
aV1330.49
p4912
aV1353.37
p4913
aV958.85
p4914
aV1099.19
p4915
aV1302.47
p4916
aV1320.22
p4917
aV1353.01
p4918
aV1126.57
p4919
aV1307.49
p4920
aV996.62
p4921
aV1359.35
p4922
aV1344.14
p4923
aV1142.50
p4924
aV1233.32
p4925
aV919.82
p4926
aV1240.76
p4927
aV1031.34
p4928
aV927.74
p4929
aV1324.48
p4930
aV950.96
p4931
aV1313.16
p4932
aV928.88
p4933
aV1326.85
p4934
aV1125.06
p4935
aV1200.85
p4936
aV1141.80
p4937
aV1201.84
p4938
aV1188.71
p4939
aV1256.01
p4940
aV1047.30
p4941
aV908.60
p4942
aV1026.83
p4943
aV1000.16
p4944
aV128.83
p4945
aV796.34
p4946
aV774.35
p4947
aV787.41
p4948
aV716.66
p4949
aV771.16
p4950
aV782.79
p4951
aV857.04
p4952
aV688.27
p4953
aV380.12
p4954
aV69.04
p4955
aV12.24
p4956
aV0.00
p4957
aV28.75
p4958
aV128.32
p4959
aV392.36
p4960
aV351.69
p4961
aV372.41
p4962
aV388.99
p4963
aV382.92
p4964
aV88.44
p4965
aV8.90
p4966
aV0.00
p4967
aV0.00
p4968
aV0.00
p4969
aV0.00
p4970
aV0.00
p4971
aV4.04
p4972
aV0.00
p4973
aV166.51
p4974
aV172.56
p4975
aV8.31
p4976
aV0.00
p4977
aV0.00
p4978
aV0.00
p4979
aV0.00
p4980
aV0.00
p4981
aV0.00
p4982
aV0.00
p4983
aV0.00
p4984
aV0.00
p4985
aV0.00
p4986
aV0.00
p4987
aV0.00
p4988
aV0.00
p4989
aV0.00
p4990
aV0.00
p4991
aV0.00
p4992
aV0.00
p4993
aV0.00
p4994
aV0.00
p4995
aV0.00
p4996
aV0.00
p4997
aV0.00
p4998
aV0.00
p4999
aV0.00
p5000
aV0.00
p5001
aV0.00
p5002
aV0.00
p5003
aV0.00
p5004
aV0.00
p5005
aV0.00
p5006
aV0.00
p5007
aV0.00
p5008
aV0.00
p5009
aV0.00
p5010
aV0.00
p5011
aV0.00
p5012
aV0.00
p5013
aV0.00
p5014
aV0.00
p5015
aV0.00
p5016
aV0.00
p5017
aV0.00
p5018
aV0.00
p5019
aV0.00
p5020
aV0.00
p5021
aV0.00
p5022
aV0.00
p5023
aV0.00
p5024
aV0.00
p5025
aV0.00
p5026
aV0.00
p5027
aV0.00
p5028
aV0.00
p5029
aV0.00
p5030
aV0.00
p5031
aV0.00
p5032
aV0.00
p5033
aV0.00
p5034
aV0.00
p5035
aV0.00
p5036
aV0.00
p5037
aV0.00
p5038
aV0.00
p5039
aV0.00
p5040
aVjanuary
p5041
aVfebruary
p5042
aVmarch
p5043
aVapril
p5044
aVmay
p5045
aVjune
p5046
aVjuly
p5047
aVaugust
p5048
aVseptember
p5049
aVoctober
p5050
aVnovember
p5051
aVdecember
p5052
atp5053
ba(lp5054
g17
(g18
(dp5055
g20
g21
(g22
(I0
tp5056
g24
tp5057
Rp5058
(I1
(L25L
tp5059
g31
I00
(lp5060
I1
aI2
aI3
aI4
aI5
aI6
aI7
aI8
aI9
aI10
aI11
aI12
aI13
aI14
aI15
aI16
aI17
aI18
aI19
aI20
aI21
aI22
aI23
aI24
ag113
atp5061
bsg43
Nstp5062
Rp5063
a(dp5064
g86
(dp5065
g88
g4728
sg89
(lp5066
(dp5067
g92
g93
(I0
I25
L1L
tp5068
Rp5069
sg96
g4750
sasstp5070
bsbsg799
g2
(g3
g4
Ntp5071
Rp5072
(dp5073
g8
g9
sg10
g11
sg12
g2
(g13
g4
Ntp5074
Rp5075
((lp5076
g17
(g18
(dp5077
g20
g21
(g22
(I0
tp5078
g24
tp5079
Rp5080
(I1
(L25L
tp5081
g31
I00
(lp5082
I1
aI2
aI3
aI4
aI5
aI6
aI7
aI8
aI9
aI10
aI11
aI12
aI13
aI14
aI15
aI16
aI17
aI18
aI19
aI20
aI21
aI22
aI23
aI24
ag113
atp5083
bsg43
Nstp5084
Rp5085
ag17
(g46
(dp5086
g20
g21
(g22
(I0
tp5087
g24
tp5088
Rp5089
(I1
(L12L
tp5090
g54
I00
S'\x00\x00\x00\x00\x00\x00\x00\x00\x01\x00\x00\x00\x00\x00\x00\x00\x02\x00\x00\x00\x00\x00\x00\x00\x03\x00\x00\x00\x00\x00\x00\x00\x04\x00\x00\x00\x00\x00\x00\x00\x05\x00\x00\x00\x00\x00\x00\x00\x06\x00\x00\x00\x00\x00\x00\x00\x07\x00\x00\x00\x00\x00\x00\x00\x08\x00\x00\x00\x00\x00\x00\x00\t\x00\x00\x00\x00\x00\x00\x00\n\x00\x00\x00\x00\x00\x00\x00\x0b\x00\x00\x00\x00\x00\x00\x00'
p5091
tp5092
bsg43
Nstp5093
Rp5094
a(lp5095
g21
(g22
(I0
tp5096
g24
tp5097
Rp5098
(I1
(L25L
L12L
tp5099
g31
I00
(lp5100
V0.00
p5101
aV0.00
p5102
aV0.00
p5103
aV0.00
p5104
aV0.00
p5105
aV0.00
p5106
aV0.00
p5107
aV0.00
p5108
aV0.00
p5109
aV0.00
p5110
aV0.00
p5111
aV0.00
p5112
aV0.00
p5113
aV0.00
p5114
aV0.00
p5115
aV0.00
p5116
aV0.00
p5117
aV0.00
p5118
aV0.00
p5119
aV0.00
p5120
aV0.00
p5121
aV0.00
p5122
aV0.00
p5123
aV0.00
p5124
aV0.00
p5125
aV0.00
p5126
aV0.00
p5127
aV0.00
p5128
aV0.00
p5129
aV0.00
p5130
aV0.00
p5131
aV0.00
p5132
aV0.00
p5133
aV0.00
p5134
aV0.00
p5135
aV0.00
p5136
aV0.00
p5137
aV0.00
p5138
aV0.00
p5139
aV0.00
p5140
aV0.00
p5141
aV0.00
p5142
aV0.00
p5143
aV0.00
p5144
aV0.00
p5145
aV0.00
p5146
aV0.00
p5147
aV0.00
p5148
aV0.00
p5149
aV0.00
p5150
aV0.00
p5151
aV0.00
p5152
aV0.00
p5153
aV0.00
p5154
aV0.00
p5155
aV0.00
p5156
aV0.00
p5157
aV0.00
p5158
aV0.00
p5159
aV0.00
p5160
aV0.00
p5161
aV0.00
p5162
aV0.00
p5163
aV0.69
p5164
aV60.46
p5165
aV0.00
p5166
aV0.00
p5167
aV0.00
p5168
aV0.00
p5169
aV0.00
p5170
aV0.00
p5171
aV0.00
p5172
aV0.00
p5173
aV0.00
p5174
aV45.51
p5175
aV218.51
p5176
aV315.39
p5177
aV299.52
p5178
aV278.43
p5179
aV268.75
p5180
aV178.61
p5181
aV90.09
p5182
aV0.00
p5183
aV0.00
p5184
aV18.90
p5185
aV261.48
p5186
aV521.75
p5187
aV685.11
p5188
aV809.46
p5189
aV830.70
p5190
aV753.21
p5191
aV818.00
p5192
aV691.93
p5193
aV705.43
p5194
aV349.41
p5195
aV47.69
p5196
aV755.49
p5197
aV930.80
p5198
aV1003.74
p5199
aV1119.17
p5200
aV1277.78
p5201
aV1277.74
p5202
aV1206.11
p5203
aV1286.58
p5204
aV1217.69
p5205
aV1118.87
p5206
aV825.88
p5207
aV718.59
p5208
aV934.41
p5209
aV1347.01
p5210
aV1376.82
p5211
aV1386.28
p5212
aV1391.94
p5213
aV1357.75
p5214
aV1540.42
p5215
aV1337.54
p5216
aV1507.46
p5217
aV1379.84
p5218
aV1128.21
p5219
aV938.33
p5220
aV1127.03
p5221
aV1536.40
p5222
aV1523.88
p5223
aV1585.64
p5224
aV1674.26
p5225
aV1330.31
p5226
aV1307.21
p5227
aV1346.32
p5228
aV1601.05
p5229
aV1594.15
p5230
aV1370.58
p5231
aV1268.92
p5232
aV1235.04
p5233
aV1405.62
p5234
aV1609.98
p5235
aV1645.94
p5236
aV1366.99
p5237
aV1439.81
p5238
aV1290.61
p5239
aV1290.87
p5240
aV1515.00
p5241
aV1624.53
p5242
aV1534.53
p5243
aV1330.44
p5244
aV1214.15
p5245
aV1606.53
p5246
aV1655.17
p5247
aV1490.35
p5248
aV1659.65
p5249
aV1708.94
p5250
aV1407.81
p5251
aV1587.14
p5252
aV1561.34
p5253
aV1616.64
p5254
aV1622.38
p5255
aV1099.97
p5256
aV1353.21
p5257
aV1653.72
p5258
aV1549.02
p5259
aV1549.66
p5260
aV1624.69
p5261
aV1631.16
p5262
aV1599.28
p5263
aV1669.93
p5264
aV1486.12
p5265
aV1436.67
p5266
aV1475.55
p5267
aV1366.34
p5268
aV1255.79
p5269
aV1566.97
p5270
aV1398.69
p5271
aV1460.36
p5272
aV1456.35
p5273
aV1508.82
p5274
aV1524.08
p5275
aV1563.40
p5276
aV1271.90
p5277
aV1327.56
p5278
aV1432.83
p5279
aV1492.63
p5280
aV1200.76
p5281
aV1375.11
p5282
aV1125.06
p5283
aV1200.85
p5284
aV1141.80
p5285
aV1201.84
p5286
aV1188.71
p5287
aV1289.16
p5288
aV1047.30
p5289
aV908.60
p5290
aV1026.83
p5291
aV1000.16
p5292
aV128.83
p5293
aV796.34
p5294
aV774.35
p5295
aV787.41
p5296
aV716.66
p5297
aV771.16
p5298
aV782.79
p5299
aV857.04
p5300
aV688.27
p5301
aV380.12
p5302
aV69.04
p5303
aV12.24
p5304
aV0.00
p5305
aV28.75
p5306
aV128.32
p5307
aV392.36
p5308
aV351.69
p5309
aV372.41
p5310
aV388.99
p5311
aV382.92
p5312
aV88.44
p5313
aV8.90
p5314
aV0.00
p5315
aV0.00
p5316
aV0.00
p5317
aV0.00
p5318
aV0.00
p5319
aV4.04
p5320
aV0.00
p5321
aV166.51
p5322
aV172.56
p5323
aV8.31
p5324
aV0.00
p5325
aV0.00
p5326
aV0.00
p5327
aV0.00
p5328
aV0.00
p5329
aV0.00
p5330
aV0.00
p5331
aV0.00
p5332
aV0.00
p5333
aV0.00
p5334
aV0.00
p5335
aV0.00
p5336
aV0.00
p5337
aV0.00
p5338
aV0.00
p5339
aV0.00
p5340
aV0.00
p5341
aV0.00
p5342
aV0.00
p5343
aV0.00
p5344
aV0.00
p5345
aV0.00
p5346
aV0.00
p5347
aV0.00
p5348
aV0.00
p5349
aV0.00
p5350
aV0.00
p5351
aV0.00
p5352
aV0.00
p5353
aV0.00
p5354
aV0.00
p5355
aV0.00
p5356
aV0.00
p5357
aV0.00
p5358
aV0.00
p5359
aV0.00
p5360
aV0.00
p5361
aV0.00
p5362
aV0.00
p5363
aV0.00
p5364
aV0.00
p5365
aV0.00
p5366
aV0.00
p5367
aV0.00
p5368
aV0.00
p5369
aV0.00
p5370
aV0.00
p5371
aV0.00
p5372
aV0.00
p5373
aV0.00
p5374
aV0.00
p5375
aV0.00
p5376
aV0.00
p5377
aV0.00
p5378
aV0.00
p5379
aV0.00
p5380
aV0.00
p5381
aV0.00
p5382
aV0.00
p5383
aV0.00
p5384
aV0.00
p5385
aV0.00
p5386
aV0.00
p5387
aV0.00
p5388
aVjanuary
p5389
aVfebruary
p5390
aVmarch
p5391
aVapril
p5392
aVmay
p5393
aVjune
p5394
aVjuly
p5395
aVaugust
p5396
aVseptember
p5397
aVoctober
p5398
aVnovember
p5399
aVdecember
p5400
atp5401
ba(lp5402
g17
(g18
(dp5403
g20
g21
(g22
(I0
tp5404
g24
tp5405
Rp5406
(I1
(L25L
tp5407
g31
I00
(lp5408
I1
aI2
aI3
aI4
aI5
aI6
aI7
aI8
aI9
aI10
aI11
aI12
aI13
aI14
aI15
aI16
aI17
aI18
aI19
aI20
aI21
aI22
aI23
aI24
ag113
atp5409
bsg43
Nstp5410
Rp5411
a(dp5412
g86
(dp5413
g88
g5076
sg89
(lp5414
(dp5415
g92
g93
(I0
I25
L1L
tp5416
Rp5417
sg96
g5098
sasstp5418
bsbssg1167
I00
s.