(dp0
S'renewables_new_capacity'
p1
ccopy_reg
_reconstructor
p2
(cpandas.core.frame
DataFrame
p3
c__builtin__
object
p4
Ntp5
Rp6
(dp7
S'_metadata'
p8
(lp9
sS'_typ'
p10
S'dataframe'
p11
sS'_data'
p12
g2
(cpandas.core.internals
BlockManager
p13
g4
Ntp14
Rp15
((lp16
cpandas.indexes.base
_new_Index
p17
(cpandas.indexes.base
Index
p18
(dp19
S'data'
p20
cnumpy.core.multiarray
_reconstruct
p21
(cnumpy
ndarray
p22
(I0
tp23
S'b'
p24
tp25
Rp26
(I1
(L2L
tp27
cnumpy
dtype
p28
(S'O8'
p29
I0
I1
tp30
Rp31
(I3
S'|'
p32
NNNI-1
I-1
I63
tp33
bI00
(lp34
VExisting Capacity (kW)
p35
aVTechnology
p36
atp37
bsS'name'
p38
Nstp39
Rp40
ag17
(cpandas.indexes.numeric
Int64Index
p41
(dp42
g20
g21
(g22
(I0
tp43
g24
tp44
Rp45
(I1
(L1L
tp46
g28
(S'i8'
p47
I0
I1
tp48
Rp49
(I3
S'<'
p50
NNNI-1
I-1
I0
tp51
bI00
S'\x00\x00\x00\x00\x00\x00\x00\x00'
p52
tp53
bsg38
Nstp54
Rp55
a(lp56
g21
(g22
(I0
tp57
g24
tp58
Rp59
(I1
(L2L
L1L
tp60
g31
I00
(lp61
V"<TABLE>"
p62
aV"++++++ 1.2 Energy Storage"
p63
atp64
ba(lp65
g17
(g18
(dp66
g20
g21
(g22
(I0
tp67
g24
tp68
Rp69
(I1
(L2L
tp70
g31
I00
(lp71
g35
ag36
atp72
bsg38
Nstp73
Rp74
a(dp75
S'0.14.1'
p76
(dp77
S'axes'
p78
g16
sS'blocks'
p79
(lp80
(dp81
S'mgr_locs'
p82
c__builtin__
slice
p83
(I0
I2
L1L
tp84
Rp85
sS'values'
p86
g59
sasstp87
bsbsS'purchase_from_utility'
p88
(dp89
S'week'
p90
g2
(g3
g4
Ntp91
Rp92
(dp93
g8
g9
sg10
g11
sg12
g2
(g13
g4
Ntp94
Rp95
((lp96
g17
(g18
(dp97
g20
g21
(g22
(I0
tp98
g24
tp99
Rp100
(I1
(L25L
tp101
g31
I00
(lp102
I1
aI2
aI3
aI4
aI5
aI6
aI7
aI8
aI9
aI10
aI11
aI12
aI13
aI14
aI15
aI16
aI17
aI18
aI19
aI20
aI21
aI22
aI23
aI24
aS'month'
p103
atp104
bsg38
Nstp105
Rp106
ag17
(g41
(dp107
g20
g21
(g22
(I0
tp108
g24
tp109
Rp110
(I1
(L12L
tp111
g49
I00
S'\x00\x00\x00\x00\x00\x00\x00\x00\x01\x00\x00\x00\x00\x00\x00\x00\x02\x00\x00\x00\x00\x00\x00\x00\x03\x00\x00\x00\x00\x00\x00\x00\x04\x00\x00\x00\x00\x00\x00\x00\x05\x00\x00\x00\x00\x00\x00\x00\x06\x00\x00\x00\x00\x00\x00\x00\x07\x00\x00\x00\x00\x00\x00\x00\x08\x00\x00\x00\x00\x00\x00\x00\t\x00\x00\x00\x00\x00\x00\x00\n\x00\x00\x00\x00\x00\x00\x00\x0b\x00\x00\x00\x00\x00\x00\x00'
p112
tp113
bsg38
Nstp114
Rp115
a(lp116
g21
(g22
(I0
tp117
g24
tp118
Rp119
(I1
(L25L
L12L
tp120
g31
I00
(lp121
V1.23
p122
aV1.20
p123
aV1.12
p124
aV0.88
p125
aV0.84
p126
aV0.71
p127
aV0.70
p128
aV0.63
p129
aV0.72
p130
aV0.89
p131
aV1.12
p132
aV1.21
p133
aV1.06
p134
aV1.04
p135
aV0.96
p136
aV0.83
p137
aV0.79
p138
aV0.64
p139
aV0.59
p140
aV0.56
p141
aV0.66
p142
aV0.83
p143
aV0.97
p144
aV1.06
p145
aV1.00
p146
aV0.99
p147
aV0.90
p148
aV0.84
p149
aV0.80
p150
aV0.65
p151
aV0.60
p152
aV0.54
p153
aV0.66
p154
aV0.83
p155
aV0.90
p156
aV0.99
p157
aV0.99
p158
aV0.98
p159
aV0.89
p160
aV0.85
p161
aV0.81
p162
aV0.67
p163
aV0.61
p164
aV0.54
p165
aV0.67
p166
aV0.85
p167
aV0.90
p168
aV0.99
p169
aV0.99
p170
aV0.99
p171
aV0.90
p172
aV0.93
p173
aV0.89
p174
aV0.74
p175
aV0.68
p176
aV0.60
p177
aV0.74
p178
aV0.92
p179
aV0.90
p180
aV0.99
p181
aV1.06
p182
aV1.07
p183
aV0.97
p184
aV1.15
p185
aV1.06
p186
aV0.88
p187
aV0.84
p188
aV0.78
p189
aV0.98
p190
aV1.19
p191
aV0.97
p192
aV1.06
p193
aV1.36
p194
aV1.34
p195
aV1.17
p196
aV1.39
p197
aV1.22
p198
aV1.03
p199
aV1.02
p200
aV1.03
p201
aV1.26
p202
aV1.55
p203
aV1.20
p204
aV1.35
p205
aV1.78
p206
aV1.66
p207
aV1.39
p208
aV1.26
p209
aV1.10
p210
aV0.94
p211
aV0.97
p212
aV0.94
p213
aV1.15
p214
aV1.45
p215
aV1.49
p216
aV1.74
p217
aV1.68
p218
aV1.53
p219
aV1.26
p220
aV1.06
p221
aV0.96
p222
aV0.88
p223
aV0.99
p224
aV0.80
p225
aV0.95
p226
aV1.15
p227
aV1.42
p228
aV1.64
p229
aV1.36
p230
aV1.24
p231
aV1.09
p232
aV1.03
p233
aV0.95
p234
aV0.99
p235
aV1.26
p236
aV0.81
p237
aV1.00
p238
aV1.06
p239
aV1.19
p240
aV1.33
p241
aV1.31
p242
aV1.19
p243
aV1.06
p244
aV1.01
p245
aV0.94
p246
aV1.11
p247
aV1.55
p248
aV0.89
p249
aV1.14
p250
aV1.01
p251
aV1.14
p252
aV1.27
p253
aV1.28
p254
aV1.15
p255
aV1.04
p256
aV0.96
p257
aV0.90
p258
aV1.29
p259
aV1.90
p260
aV1.14
p261
aV1.36
p262
aV0.98
p263
aV1.11
p264
aV1.23
p265
aV1.24
p266
aV1.10
p267
aV1.00
p268
aV0.92
p269
aV0.87
p270
aV1.53
p271
aV2.20
p272
aV1.40
p273
aV1.53
p274
aV0.94
p275
aV1.06
p276
aV1.20
p277
aV1.20
p278
aV1.06
p279
aV0.96
p280
aV0.90
p281
aV0.86
p282
aV1.73
p283
aV2.58
p284
aV1.79
p285
aV1.65
p286
aV0.93
p287
aV1.03
p288
aV1.15
p289
aV1.19
p290
aV1.05
p291
aV0.94
p292
aV0.93
p293
aV0.89
p294
aV2.00
p295
aV2.90
p296
aV2.24
p297
aV1.81
p298
aV0.97
p299
aV1.03
p300
aV1.16
p301
aV1.29
p302
aV1.12
p303
aV0.99
p304
aV1.06
p305
aV1.02
p306
aV2.28
p307
aV3.18
p308
aV2.65
p309
aV2.04
p310
aV1.14
p311
aV1.17
p312
aV1.31
p313
aV1.68
p314
aV1.40
p315
aV1.21
p316
aV1.31
p317
aV1.26
p318
aV2.51
p319
aV3.48
p320
aV2.96
p321
aV2.23
p322
aV1.50
p323
aV1.59
p324
aV1.79
p325
aV2.40
p326
aV2.00
p327
aV1.66
p328
aV1.47
p329
aV1.36
p330
aV2.48
p331
aV3.28
p332
aV2.85
p333
aV2.33
p334
aV1.85
p335
aV2.29
p336
aV2.56
p337
aV2.89
p338
aV2.49
p339
aV2.08
p340
aV1.74
p341
aV1.53
p342
aV2.42
p343
aV3.07
p344
aV2.63
p345
aV2.34
p346
aV2.23
p347
aV2.69
p348
aV2.95
p349
aV2.92
p350
aV2.77
p351
aV2.45
p352
aV2.14
p353
aV1.88
p354
aV2.41
p355
aV3.00
p356
aV2.66
p357
aV2.55
p358
aV2.37
p359
aV2.65
p360
aV2.80
p361
aV2.72
p362
aV2.69
p363
aV2.55
p364
aV2.21
p365
aV2.11
p366
aV2.46
p367
aV2.99
p368
aV2.62
p369
aV2.29
p370
aV2.16
p371
aV2.54
p372
aV2.67
p373
aV2.49
p374
aV2.45
p375
aV2.33
p376
aV1.80
p377
aV1.75
p378
aV1.98
p379
aV2.36
p380
aV1.93
p381
aV1.76
p382
aV1.78
p383
aV2.32
p384
aV2.44
p385
aV2.06
p386
aV2.02
p387
aV1.92
p388
aV1.42
p389
aV1.36
p390
aV1.36
p391
aV1.66
p392
aV1.32
p393
aV1.29
p394
aV1.41
p395
aV1.91
p396
aV2.01
p397
aV1.65
p398
aV1.63
p399
aV1.54
p400
aV1.03
p401
aV0.96
p402
aV0.87
p403
aV0.99
p404
aV0.81
p405
aV0.87
p406
aV1.02
p407
aV1.52
p408
aV1.62
p409
aVjanuary
p410
aVfebruary
p411
aVmarch
p412
aVapril
p413
aVmay
p414
aVjune
p415
aVjuly
p416
aVaugust
p417
aVseptember
p418
aVoctober
p419
aVnovember
p420
aVdecember
p421
atp422
ba(lp423
g17
(g18
(dp424
g20
g21
(g22
(I0
tp425
g24
tp426
Rp427
(I1
(L25L
tp428
g31
I00
(lp429
I1
aI2
aI3
aI4
aI5
aI6
aI7
aI8
aI9
aI10
aI11
aI12
aI13
aI14
aI15
aI16
aI17
aI18
aI19
aI20
aI21
aI22
aI23
aI24
ag103
atp430
bsg38
Nstp431
Rp432
a(dp433
g76
(dp434
g78
g96
sg79
(lp435
(dp436
g82
g83
(I0
I25
L1L
tp437
Rp438
sg86
g119
sasstp439
bsbsS'weekend'
p440
g2
(g3
g4
Ntp441
Rp442
(dp443
g8
g9
sg10
g11
sg12
g2
(g13
g4
Ntp444
Rp445
((lp446
g17
(g18
(dp447
g20
g21
(g22
(I0
tp448
g24
tp449
Rp450
(I1
(L25L
tp451
g31
I00
(lp452
I1
aI2
aI3
aI4
aI5
aI6
aI7
aI8
aI9
aI10
aI11
aI12
aI13
aI14
aI15
aI16
aI17
aI18
aI19
aI20
aI21
aI22
aI23
aI24
ag103
atp453
bsg38
Nstp454
Rp455
ag17
(g41
(dp456
g20
g21
(g22
(I0
tp457
g24
tp458
Rp459
(I1
(L12L
tp460
g49
I00
S'\x00\x00\x00\x00\x00\x00\x00\x00\x01\x00\x00\x00\x00\x00\x00\x00\x02\x00\x00\x00\x00\x00\x00\x00\x03\x00\x00\x00\x00\x00\x00\x00\x04\x00\x00\x00\x00\x00\x00\x00\x05\x00\x00\x00\x00\x00\x00\x00\x06\x00\x00\x00\x00\x00\x00\x00\x07\x00\x00\x00\x00\x00\x00\x00\x08\x00\x00\x00\x00\x00\x00\x00\t\x00\x00\x00\x00\x00\x00\x00\n\x00\x00\x00\x00\x00\x00\x00\x0b\x00\x00\x00\x00\x00\x00\x00'
p461
tp462
bsg38
Nstp463
Rp464
a(lp465
g21
(g22
(I0
tp466
g24
tp467
Rp468
(I1
(L25L
L12L
tp469
g31
I00
(lp470
V1.28
p471
aV1.30
p472
aV1.23
p473
aV0.97
p474
aV0.89
p475
aV0.78
p476
aV0.77
p477
aV0.66
p478
aV0.75
p479
aV0.92
p480
aV1.17
p481
aV1.34
p482
aV1.10
p483
aV1.13
p484
aV1.07
p485
aV0.90
p486
aV0.84
p487
aV0.71
p488
aV0.66
p489
aV0.58
p490
aV0.69
p491
aV0.85
p492
aV1.00
p493
aV1.18
p494
aV1.04
p495
aV1.07
p496
aV1.01
p497
aV0.90
p498
aV0.84
p499
aV0.73
p500
aV0.65
p501
aV0.57
p502
aV0.69
p503
aV0.85
p504
aV0.94
p505
aV1.11
p506
aV1.04
p507
aV1.07
p508
aV1.01
p509
aV0.92
p510
aV0.86
p511
aV0.75
p512
aV0.66
p513
aV0.57
p514
aV0.71
p515
aV0.87
p516
aV0.92
p517
aV1.11
p518
aV1.03
p519
aV1.07
p520
aV1.01
p521
aV0.99
p522
aV0.93
p523
aV0.82
p524
aV0.74
p525
aV0.63
p526
aV0.79
p527
aV0.96
p528
aV0.93
p529
aV1.12
p530
aV1.11
p531
aV1.16
p532
aV1.08
p533
aV1.22
p534
aV1.11
p535
aV0.98
p536
aV0.92
p537
aV0.82
p538
aV1.06
p539
aV1.26
p540
aV1.01
p541
aV1.20
p542
aV1.45
p543
aV1.47
p544
aV1.30
p545
aV1.48
p546
aV1.29
p547
aV1.14
p548
aV1.12
p549
aV1.09
p550
aV1.36
p551
aV1.65
p552
aV1.26
p553
aV1.51
p554
aV1.90
p555
aV1.81
p556
aV1.52
p557
aV1.40
p558
aV1.16
p559
aV1.04
p560
aV1.07
p561
aV1.01
p562
aV1.25
p563
aV1.57
p564
aV1.58
p565
aV1.92
p566
aV1.80
p567
aV1.67
p568
aV1.39
p569
aV1.22
p570
aV1.02
p571
aV0.97
p572
aV1.15
p573
aV0.87
p574
aV1.04
p575
aV1.29
p576
aV1.52
p577
aV1.79
p578
aV1.48
p579
aV1.38
p580
aV1.21
p581
aV1.18
p582
aV1.00
p583
aV1.03
p584
aV1.51
p585
aV0.90
p586
aV1.18
p587
aV1.20
p588
aV1.31
p589
aV1.47
p590
aV1.45
p591
aV1.33
p592
aV1.18
p593
aV1.16
p594
aV0.99
p595
aV1.17
p596
aV1.84
p597
aV1.02
p598
aV1.49
p599
aV1.17
p600
aV1.29
p601
aV1.40
p602
aV1.42
p603
aV1.28
p604
aV1.15
p605
aV1.12
p606
aV0.95
p607
aV1.37
p608
aV2.25
p609
aV1.20
p610
aV1.90
p611
aV1.11
p612
aV1.25
p613
aV1.36
p614
aV1.37
p615
aV1.23
p616
aV1.10
p617
aV1.08
p618
aV0.92
p619
aV1.56
p620
aV2.61
p621
aV1.50
p622
aV2.28
p623
aV1.07
p624
aV1.20
p625
aV1.31
p626
aV1.30
p627
aV1.17
p628
aV1.06
p629
aV1.07
p630
aV0.91
p631
aV1.81
p632
aV2.96
p633
aV1.84
p634
aV2.54
p635
aV1.04
p636
aV1.16
p637
aV1.26
p638
aV1.29
p639
aV1.15
p640
aV1.04
p641
aV1.09
p642
aV0.95
p643
aV2.13
p644
aV3.38
p645
aV2.28
p646
aV2.81
p647
aV1.08
p648
aV1.15
p649
aV1.25
p650
aV1.38
p651
aV1.22
p652
aV1.08
p653
aV1.21
p654
aV1.09
p655
aV2.53
p656
aV3.77
p657
aV2.67
p658
aV3.02
p659
aV1.25
p660
aV1.28
p661
aV1.40
p662
aV1.79
p663
aV1.51
p664
aV1.31
p665
aV1.46
p666
aV1.33
p667
aV2.80
p668
aV4.07
p669
aV3.04
p670
aV3.16
p671
aV1.63
p672
aV1.72
p673
aV1.91
p674
aV2.54
p675
aV2.14
p676
aV1.80
p677
aV1.63
p678
aV1.44
p679
aV2.79
p680
aV3.84
p681
aV2.96
p682
aV2.98
p683
aV2.00
p684
aV2.46
p685
aV2.73
p686
aV3.05
p687
aV2.66
p688
aV2.24
p689
aV1.89
p690
aV1.63
p691
aV2.80
p692
aV3.64
p693
aV2.76
p694
aV2.84
p695
aV2.40
p696
aV2.87
p697
aV3.14
p698
aV3.09
p699
aV2.95
p700
aV2.62
p701
aV2.29
p702
aV2.00
p703
aV2.71
p704
aV3.43
p705
aV2.75
p706
aV2.92
p707
aV2.56
p708
aV2.82
p709
aV2.99
p710
aV2.87
p711
aV2.87
p712
aV2.72
p713
aV2.40
p714
aV2.25
p715
aV2.75
p716
aV3.35
p717
aV2.73
p718
aV2.57
p719
aV2.37
p720
aV2.71
p721
aV2.87
p722
aV2.62
p723
aV2.62
p724
aV2.48
p725
aV2.01
p726
aV1.88
p727
aV2.13
p728
aV2.62
p729
aV1.97
p730
aV1.94
p731
aV1.97
p732
aV2.48
p733
aV2.63
p734
aV2.17
p735
aV2.17
p736
aV2.04
p737
aV1.59
p738
aV1.48
p739
aV1.51
p740
aV1.78
p741
aV1.38
p742
aV1.45
p743
aV1.55
p744
aV2.03
p745
aV2.18
p746
aV1.71
p747
aV1.74
p748
aV1.62
p749
aV1.16
p750
aV1.06
p751
aV0.97
p752
aV0.99
p753
aV0.87
p754
aV0.93
p755
aV1.14
p756
aV1.60
p757
aV1.77
p758
aVjanuary
p759
aVfebruary
p760
aVmarch
p761
aVapril
p762
aVmay
p763
aVjune
p764
aVjuly
p765
aVaugust
p766
aVseptember
p767
aVoctober
p768
aVnovember
p769
aVdecember
p770
atp771
ba(lp772
g17
(g18
(dp773
g20
g21
(g22
(I0
tp774
g24
tp775
Rp776
(I1
(L25L
tp777
g31
I00
(lp778
I1
aI2
aI3
aI4
aI5
aI6
aI7
aI8
aI9
aI10
aI11
aI12
aI13
aI14
aI15
aI16
aI17
aI18
aI19
aI20
aI21
aI22
aI23
aI24
ag103
atp779
bsg38
Nstp780
Rp781
a(dp782
g76
(dp783
g78
g446
sg79
(lp784
(dp785
g82
g83
(I0
I25
L1L
tp786
Rp787
sg86
g468
sasstp788
bsbsS'peak'
p789
g2
(g3
g4
Ntp790
Rp791
(dp792
g8
g9
sg10
g11
sg12
g2
(g13
g4
Ntp793
Rp794
((lp795
g17
(g18
(dp796
g20
g21
(g22
(I0
tp797
g24
tp798
Rp799
(I1
(L25L
tp800
g31
I00
(lp801
I1
aI2
aI3
aI4
aI5
aI6
aI7
aI8
aI9
aI10
aI11
aI12
aI13
aI14
aI15
aI16
aI17
aI18
aI19
aI20
aI21
aI22
aI23
aI24
ag103
atp802
bsg38
Nstp803
Rp804
ag17
(g41
(dp805
g20
g21
(g22
(I0
tp806
g24
tp807
Rp808
(I1
(L12L
tp809
g49
I00
S'\x00\x00\x00\x00\x00\x00\x00\x00\x01\x00\x00\x00\x00\x00\x00\x00\x02\x00\x00\x00\x00\x00\x00\x00\x03\x00\x00\x00\x00\x00\x00\x00\x04\x00\x00\x00\x00\x00\x00\x00\x05\x00\x00\x00\x00\x00\x00\x00\x06\x00\x00\x00\x00\x00\x00\x00\x07\x00\x00\x00\x00\x00\x00\x00\x08\x00\x00\x00\x00\x00\x00\x00\t\x00\x00\x00\x00\x00\x00\x00\n\x00\x00\x00\x00\x00\x00\x00\x0b\x00\x00\x00\x00\x00\x00\x00'
p810
tp811
bsg38
Nstp812
Rp813
a(lp814
g21
(g22
(I0
tp815
g24
tp816
Rp817
(I1
(L25L
L12L
tp818
g31
I00
(lp819
V1.51
p820
aV1.39
p821
aV1.32
p822
aV1.08
p823
aV1.06
p824
aV1.14
p825
aV1.13
p826
aV0.73
p827
aV1.26
p828
aV1.15
p829
aV1.29
p830
aV1.45
p831
aV1.41
p832
aV1.23
p833
aV1.18
p834
aV1.02
p835
aV1.01
p836
aV0.92
p837
aV0.78
p838
aV0.58
p839
aV1.10
p840
aV1.05
p841
aV1.12
p842
aV1.29
p843
aV1.34
p844
aV1.18
p845
aV1.11
p846
aV1.01
p847
aV1.00
p848
aV0.92
p849
aV0.68
p850
aV0.57
p851
aV0.97
p852
aV1.06
p853
aV1.06
p854
aV1.20
p855
aV1.31
p856
aV1.17
p857
aV1.11
p858
aV1.00
p859
aV1.01
p860
aV0.93
p861
aV0.94
p862
aV0.57
p863
aV0.91
p864
aV1.09
p865
aV1.04
p866
aV1.24
p867
aV1.28
p868
aV1.18
p869
aV1.11
p870
aV1.07
p871
aV1.10
p872
aV0.99
p873
aV0.99
p874
aV0.63
p875
aV0.95
p876
aV1.20
p877
aV1.05
p878
aV1.24
p879
aV1.39
p880
aV1.25
p881
aV1.23
p882
aV1.32
p883
aV1.27
p884
aV1.12
p885
aV1.10
p886
aV0.83
p887
aV1.14
p888
aV1.53
p889
aV1.15
p890
aV1.35
p891
aV1.74
p892
aV1.57
p893
aV1.44
p894
aV1.58
p895
aV1.40
p896
aV1.24
p897
aV1.23
p898
aV1.11
p899
aV1.42
p900
aV1.85
p901
aV1.45
p902
aV1.66
p903
aV2.17
p904
aV1.94
p905
aV1.60
p906
aV1.45
p907
aV1.30
p908
aV1.34
p909
aV1.36
p910
aV1.02
p911
aV1.40
p912
aV1.65
p913
aV1.76
p914
aV2.05
p915
aV2.07
p916
aV1.73
p917
aV1.46
p918
aV1.26
p919
aV1.19
p920
aV1.43
p921
aV1.63
p922
aV0.92
p923
aV1.21
p924
aV1.46
p925
aV1.67
p926
aV1.97
p927
aV1.72
p928
aV1.41
p929
aV1.27
p930
aV1.24
p931
aV1.19
p932
aV1.72
p933
aV2.27
p934
aV1.35
p935
aV1.56
p936
aV1.21
p937
aV1.43
p938
aV1.69
p939
aV1.67
p940
aV1.40
p941
aV1.21
p942
aV1.22
p943
aV1.17
p944
aV1.72
p945
aV2.81
p946
aV1.82
p947
aV2.03
p948
aV1.18
p949
aV1.40
p950
aV1.65
p951
aV1.57
p952
aV1.35
p953
aV1.21
p954
aV1.20
p955
aV1.12
p956
aV2.03
p957
aV3.49
p958
aV2.53
p959
aV2.53
p960
aV1.13
p961
aV1.39
p962
aV1.59
p963
aV1.53
p964
aV1.31
p965
aV1.19
p966
aV1.19
p967
aV1.07
p968
aV2.40
p969
aV4.05
p970
aV3.11
p971
aV3.02
p972
aV1.10
p973
aV1.37
p974
aV1.54
p975
aV1.46
p976
aV1.30
p977
aV1.13
p978
aV1.12
p979
aV1.07
p980
aV2.78
p981
aV4.62
p982
aV3.71
p983
aV3.09
p984
aV1.06
p985
aV1.33
p986
aV1.51
p987
aV1.45
p988
aV1.31
p989
aV1.11
p990
aV1.18
p991
aV1.06
p992
aV3.20
p993
aV5.14
p994
aV4.14
p995
aV3.31
p996
aV1.10
p997
aV1.32
p998
aV1.50
p999
aV1.55
p1000
aV1.35
p1001
aV1.16
p1002
aV1.33
p1003
aV1.20
p1004
aV3.32
p1005
aV5.62
p1006
aV4.41
p1007
aV3.77
p1008
aV1.29
p1009
aV1.46
p1010
aV1.60
p1011
aV1.96
p1012
aV1.63
p1013
aV1.37
p1014
aV1.61
p1015
aV1.47
p1016
aV3.72
p1017
aV5.73
p1018
aV4.65
p1019
aV4.05
p1020
aV1.70
p1021
aV1.90
p1022
aV2.14
p1023
aV2.71
p1024
aV2.23
p1025
aV1.84
p1026
aV1.75
p1027
aV1.58
p1028
aV3.44
p1029
aV5.63
p1030
aV4.26
p1031
aV4.03
p1032
aV2.09
p1033
aV2.61
p1034
aV2.95
p1035
aV3.20
p1036
aV2.73
p1037
aV2.29
p1038
aV2.03
p1039
aV1.74
p1040
aV3.29
p1041
aV5.63
p1042
aV3.76
p1043
aV3.49
p1044
aV2.50
p1045
aV2.99
p1046
aV3.39
p1047
aV3.22
p1048
aV3.06
p1049
aV2.68
p1050
aV2.46
p1051
aV2.11
p1052
aV3.20
p1053
aV4.72
p1054
aV3.59
p1055
aV3.44
p1056
aV2.64
p1057
aV2.92
p1058
aV3.24
p1059
aV2.99
p1060
aV2.93
p1061
aV2.79
p1062
aV2.53
p1063
aV2.35
p1064
aV3.14
p1065
aV4.34
p1066
aV3.53
p1067
aV3.03
p1068
aV2.64
p1069
aV2.79
p1070
aV3.12
p1071
aV2.81
p1072
aV2.70
p1073
aV2.57
p1074
aV2.10
p1075
aV1.98
p1076
aV2.61
p1077
aV3.35
p1078
aV2.69
p1079
aV2.30
p1080
aV2.40
p1081
aV2.57
p1082
aV2.91
p1083
aV2.34
p1084
aV2.25
p1085
aV2.14
p1086
aV1.67
p1087
aV1.59
p1088
aV2.02
p1089
aV2.40
p1090
aV1.93
p1091
aV1.62
p1092
aV1.98
p1093
aV2.14
p1094
aV2.46
p1095
aV1.92
p1096
aV1.84
p1097
aV1.75
p1098
aV1.25
p1099
aV1.15
p1100
aV1.40
p1101
aV1.63
p1102
aV1.08
p1103
aV1.63
p1104
aV1.57
p1105
aV1.73
p1106
aV2.04
p1107
aVjanuary
p1108
aVfebruary
p1109
aVmarch
p1110
aVapril
p1111
aVmay
p1112
aVjune
p1113
aVjuly
p1114
aVaugust
p1115
aVseptember
p1116
aVoctober
p1117
aVnovember
p1118
aVdecember
p1119
atp1120
ba(lp1121
g17
(g18
(dp1122
g20
g21
(g22
(I0
tp1123
g24
tp1124
Rp1125
(I1
(L25L
tp1126
g31
I00
(lp1127
I1
aI2
aI3
aI4
aI5
aI6
aI7
aI8
aI9
aI10
aI11
aI12
aI13
aI14
aI15
aI16
aI17
aI18
aI19
aI20
aI21
aI22
aI23
aI24
ag103
atp1128
bsg38
Nstp1129
Rp1130
a(dp1131
g76
(dp1132
g78
g795
sg79
(lp1133
(dp1134
g82
g83
(I0
I25
L1L
tp1135
Rp1136
sg86
g817
sasstp1137
bsbssS'doc'
p1138
(lp1139
(dp1140
S'type'
p1141
S'value'
p1142
sg38
S'OPEX_saving'
p1143
sS'id'
p1144
S'Saving (%)'
p1145
sa(dp1146
g1141
S'table'
p1147
sg38
g1
sg1144
S'1.1.2.1 Renewables (PV and Solar Thermal)'
p1148
sa(dp1149
g1141
g1147
sg38
S'energy_storage_new_capacity'
p1150
sg1144
S'++++++ 1.2 Energy Storage'
p1151
sa(dp1152
g1141
S'timeserie'
p1153
sg38
S'hourly_pv_self_consumpt'
p1154
sg1144
S'*** Hourly PV output for self consumption'
p1155
sa(dp1156
g1141
g1153
sg38
S'hourly_pv_export'
p1157
sg1144
S'*** Hourly PV output for export '
p1158
sa(dp1159
g1141
g1153
sg38
S'elec_stored_stationnary_batteries'
p1160
sg1144
S'*** Electricity stored in Stationary Batteries (kWh)'
p1161
sa(dp1162
g1141
g1153
sg38
S'elec_for_stationnary_battery_charging_before_eff'
p1163
sg1144
S'Electricity for Stationary Battery charging (before charging efficiency) (kW)'
p1164
sa(dp1165
g1141
g1153
sg38
S'elec_provided_by_stationnary_battery_charging_after_eff'
p1166
sg1144
S'*** Electricity Provided by the Stationary Battery (after discharging efficiency) (kW)'
p1167
sa(dp1168
g1141
g1153
sg38
g88
sg1144
S'*** Hourly purchase from electric utility (kW)'
p1169
sasg1160
I00
sg1166
I00
sg1143
F5.0
sg1150
g2
(g3
g4
Ntp1170
Rp1171
(dp1172
g8
g9
sg10
g11
sg12
g2
(g13
g4
Ntp1173
Rp1174
((lp1175
g17
(g18
(dp1176
g20
g21
(g22
(I0
tp1177
g24
tp1178
Rp1179
(I1
(L1L
tp1180
g31
I00
(lp1181
VTechnology
p1182
atp1183
bsg38
Nstp1184
Rp1185
ag17
(g41
(dp1186
g20
g21
(g22
(I0
tp1187
g24
tp1188
Rp1189
(I1
(L1L
tp1190
g49
I00
S'\x00\x00\x00\x00\x00\x00\x00\x00'
p1191
tp1192
bsg38
Nstp1193
Rp1194
a(lp1195
g21
(g22
(I0
tp1196
g24
tp1197
Rp1198
(I1
(L1L
L1L
tp1199
g31
I00
(lp1200
S''
p1201
atp1202
ba(lp1203
g17
(g18
(dp1204
g20
g21
(g22
(I0
tp1205
g24
tp1206
Rp1207
(I1
(L1L
tp1208
g31
I00
(lp1209
g1182
atp1210
bsg38
Nstp1211
Rp1212
a(dp1213
g76
(dp1214
g78
g1175
sg79
(lp1215
(dp1216
g82
g83
(L0L
L1L
I1
tp1217
Rp1218
sg86
g1198
sasstp1219
bsbsg1163
I00
sg1154
I00
sg1157
I00
s.