(dp0
S'renewables_new_capacity'
p1
ccopy_reg
_reconstructor
p2
(cpandas.core.frame
DataFrame
p3
c__builtin__
object
p4
Ntp5
Rp6
(dp7
S'_metadata'
p8
(lp9
sS'_typ'
p10
S'dataframe'
p11
sS'_data'
p12
g2
(cpandas.core.internals
BlockManager
p13
g4
Ntp14
Rp15
((lp16
cpandas.indexes.base
_new_Index
p17
(cpandas.indexes.base
Index
p18
(dp19
S'data'
p20
cnumpy.core.multiarray
_reconstruct
p21
(cnumpy
ndarray
p22
(I0
tp23
S'b'
p24
tp25
Rp26
(I1
(L2L
tp27
cnumpy
dtype
p28
(S'O8'
p29
I0
I1
tp30
Rp31
(I3
S'|'
p32
NNNI-1
I-1
I63
tp33
bI00
(lp34
VExisting Capacity (kW)
p35
aVTechnology
p36
atp37
bsS'name'
p38
Nstp39
Rp40
ag17
(cpandas.indexes.numeric
Int64Index
p41
(dp42
g20
g21
(g22
(I0
tp43
g24
tp44
Rp45
(I1
(L1L
tp46
g28
(S'i8'
p47
I0
I1
tp48
Rp49
(I3
S'<'
p50
NNNI-1
I-1
I0
tp51
bI00
S'\x00\x00\x00\x00\x00\x00\x00\x00'
p52
tp53
bsg38
Nstp54
Rp55
a(lp56
g21
(g22
(I0
tp57
g24
tp58
Rp59
(I1
(L2L
L1L
tp60
g31
I00
(lp61
V"<TABLE>"
p62
aV"++++++ 1.2 Energy Storage"
p63
atp64
ba(lp65
g17
(g18
(dp66
g20
g21
(g22
(I0
tp67
g24
tp68
Rp69
(I1
(L2L
tp70
g31
I00
(lp71
g35
ag36
atp72
bsg38
Nstp73
Rp74
a(dp75
S'0.14.1'
p76
(dp77
S'axes'
p78
g16
sS'blocks'
p79
(lp80
(dp81
S'mgr_locs'
p82
c__builtin__
slice
p83
(I0
I2
L1L
tp84
Rp85
sS'values'
p86
g59
sasstp87
bsbsS'purchase_from_utility'
p88
(dp89
S'week'
p90
g2
(g3
g4
Ntp91
Rp92
(dp93
g8
g9
sg10
g11
sg12
g2
(g13
g4
Ntp94
Rp95
((lp96
g17
(g18
(dp97
g20
g21
(g22
(I0
tp98
g24
tp99
Rp100
(I1
(L25L
tp101
g31
I00
(lp102
I1
aI2
aI3
aI4
aI5
aI6
aI7
aI8
aI9
aI10
aI11
aI12
aI13
aI14
aI15
aI16
aI17
aI18
aI19
aI20
aI21
aI22
aI23
aI24
aS'month'
p103
atp104
bsg38
Nstp105
Rp106
ag17
(g41
(dp107
g20
g21
(g22
(I0
tp108
g24
tp109
Rp110
(I1
(L12L
tp111
g49
I00
S'\x00\x00\x00\x00\x00\x00\x00\x00\x01\x00\x00\x00\x00\x00\x00\x00\x02\x00\x00\x00\x00\x00\x00\x00\x03\x00\x00\x00\x00\x00\x00\x00\x04\x00\x00\x00\x00\x00\x00\x00\x05\x00\x00\x00\x00\x00\x00\x00\x06\x00\x00\x00\x00\x00\x00\x00\x07\x00\x00\x00\x00\x00\x00\x00\x08\x00\x00\x00\x00\x00\x00\x00\t\x00\x00\x00\x00\x00\x00\x00\n\x00\x00\x00\x00\x00\x00\x00\x0b\x00\x00\x00\x00\x00\x00\x00'
p112
tp113
bsg38
Nstp114
Rp115
a(lp116
g21
(g22
(I0
tp117
g24
tp118
Rp119
(I1
(L25L
L12L
tp120
g31
I00
(lp121
V0.45
p122
aV0.45
p123
aV0.42
p124
aV0.35
p125
aV0.34
p126
aV0.30
p127
aV0.30
p128
aV0.30
p129
aV0.30
p130
aV0.33
p131
aV0.39
p132
aV0.44
p133
aV0.40
p134
aV0.40
p135
aV0.37
p136
aV0.34
p137
aV0.33
p138
aV0.28
p139
aV0.28
p140
aV0.28
p141
aV0.28
p142
aV0.31
p143
aV0.35
p144
aV0.40
p145
aV0.39
p146
aV0.38
p147
aV0.35
p148
aV0.34
p149
aV0.33
p150
aV0.28
p151
aV0.27
p152
aV0.28
p153
aV0.28
p154
aV0.31
p155
aV0.33
p156
aV0.38
p157
aV0.38
p158
aV0.38
p159
aV0.35
p160
aV0.33
p161
aV0.32
p162
aV0.27
p163
aV0.27
p164
aV0.27
p165
aV0.27
p166
aV0.30
p167
aV0.33
p168
aV0.38
p169
aV0.37
p170
aV0.37
p171
aV0.34
p172
aV0.36
p173
aV0.35
p174
aV0.30
p175
aV0.29
p176
aV0.29
p177
aV0.29
p178
aV0.33
p179
aV0.32
p180
aV0.37
p181
aV0.41
p182
aV0.41
p183
aV0.38
p184
aV0.43
p185
aV0.41
p186
aV0.35
p187
aV0.35
p188
aV0.35
p189
aV0.36
p190
aV0.41
p191
aV0.35
p192
aV0.40
p193
aV0.50
p194
aV0.49
p195
aV0.44
p196
aV0.49
p197
aV0.46
p198
aV0.39
p199
aV0.40
p200
aV0.41
p201
aV0.43
p202
aV0.50
p203
aV0.42
p204
aV0.49
p205
aV0.60
p206
aV0.57
p207
aV0.50
p208
aV0.43
p209
aV0.40
p210
aV0.34
p211
aV0.34
p212
aV0.36
p213
aV0.38
p214
aV0.45
p215
aV0.49
p216
aV0.58
p217
aV0.53
p218
aV0.50
p219
aV0.43
p220
aV0.35
p221
aV0.33
p222
aV0.29
p223
aV0.29
p224
aV0.29
p225
aV0.31
p226
aV0.35
p227
aV0.44
p228
aV0.52
p229
aV0.42
p230
aV0.40
p231
aV0.36
p232
aV0.34
p233
aV0.33
p234
aV0.29
p235
aV0.29
p236
aV0.29
p237
aV0.30
p238
aV0.33
p239
aV0.35
p240
aV0.42
p241
aV0.41
p242
aV0.38
p243
aV0.35
p244
aV0.34
p245
aV0.32
p246
aV0.29
p247
aV0.29
p248
aV0.29
p249
aV0.30
p250
aV0.33
p251
aV0.34
p252
aV0.40
p253
aV0.40
p254
aV0.38
p255
aV0.34
p256
aV0.33
p257
aV0.32
p258
aV0.28
p259
aV0.29
p260
aV0.29
p261
aV0.30
p262
aV0.32
p263
aV0.34
p264
aV0.39
p265
aV0.39
p266
aV0.37
p267
aV0.34
p268
aV0.33
p269
aV0.32
p270
aV0.29
p271
aV0.31
p272
aV0.29
p273
aV0.30
p274
aV0.33
p275
aV0.33
p276
aV0.39
p277
aV0.40
p278
aV0.37
p279
aV0.34
p280
aV0.34
p281
aV0.33
p282
aV0.30
p283
aV0.34
p284
aV0.30
p285
aV0.31
p286
aV0.34
p287
aV0.34
p288
aV0.39
p289
aV0.41
p290
aV0.39
p291
aV0.35
p292
aV0.35
p293
aV0.35
p294
aV0.31
p295
aV0.38
p296
aV0.34
p297
aV0.32
p298
aV0.35
p299
aV0.35
p300
aV0.41
p301
aV0.45
p302
aV0.41
p303
aV0.37
p304
aV0.41
p305
aV0.41
p306
aV0.36
p307
aV0.48
p308
aV0.42
p309
aV0.38
p310
aV0.42
p311
aV0.39
p312
aV0.45
p313
aV0.56
p314
aV0.51
p315
aV0.44
p316
aV0.51
p317
aV0.50
p318
aV0.44
p319
aV0.66
p320
aV0.56
p321
aV0.48
p322
aV0.53
p323
aV0.51
p324
aV0.59
p325
aV0.78
p326
aV0.69
p327
aV0.59
p328
aV0.57
p329
aV0.55
p330
aV0.49
p331
aV0.68
p332
aV0.61
p333
aV0.55
p334
aV0.64
p335
aV0.71
p336
aV0.81
p337
aV0.91
p338
aV0.82
p339
aV0.71
p340
aV0.65
p341
aV0.61
p342
aV0.54
p343
aV0.68
p344
aV0.64
p345
aV0.64
p346
aV0.75
p347
aV0.82
p348
aV0.92
p349
aV0.93
p350
aV0.90
p351
aV0.81
p352
aV0.75
p353
aV0.70
p354
aV0.61
p355
aV0.70
p356
aV0.69
p357
aV0.73
p358
aV0.79
p359
aV0.82
p360
aV0.90
p361
aV0.89
p362
aV0.89
p363
aV0.83
p364
aV0.75
p365
aV0.74
p366
aV0.67
p367
aV0.72
p368
aV0.72
p369
aV0.69
p370
aV0.73
p371
aV0.80
p372
aV0.88
p373
aV0.83
p374
aV0.82
p375
aV0.77
p376
aV0.62
p377
aV0.62
p378
aV0.57
p379
aV0.59
p380
aV0.58
p381
aV0.57
p382
aV0.61
p383
aV0.74
p384
aV0.82
p385
aV0.70
p386
aV0.69
p387
aV0.65
p388
aV0.52
p389
aV0.51
p390
aV0.46
p391
aV0.47
p392
aV0.46
p393
aV0.47
p394
aV0.50
p395
aV0.62
p396
aV0.69
p397
aV0.58
p398
aV0.58
p399
aV0.54
p400
aV0.40
p401
aV0.39
p402
aV0.35
p403
aV0.35
p404
aV0.35
p405
aV0.35
p406
aV0.37
p407
aV0.51
p408
aV0.57
p409
aVjanuary
p410
aVfebruary
p411
aVmarch
p412
aVapril
p413
aVmay
p414
aVjune
p415
aVjuly
p416
aVaugust
p417
aVseptember
p418
aVoctober
p419
aVnovember
p420
aVdecember
p421
atp422
ba(lp423
g17
(g18
(dp424
g20
g21
(g22
(I0
tp425
g24
tp426
Rp427
(I1
(L25L
tp428
g31
I00
(lp429
I1
aI2
aI3
aI4
aI5
aI6
aI7
aI8
aI9
aI10
aI11
aI12
aI13
aI14
aI15
aI16
aI17
aI18
aI19
aI20
aI21
aI22
aI23
aI24
ag103
atp430
bsg38
Nstp431
Rp432
a(dp433
g76
(dp434
g78
g96
sg79
(lp435
(dp436
g82
g83
(I0
I25
L1L
tp437
Rp438
sg86
g119
sasstp439
bsbsS'weekend'
p440
g2
(g3
g4
Ntp441
Rp442
(dp443
g8
g9
sg10
g11
sg12
g2
(g13
g4
Ntp444
Rp445
((lp446
g17
(g18
(dp447
g20
g21
(g22
(I0
tp448
g24
tp449
Rp450
(I1
(L25L
tp451
g31
I00
(lp452
I1
aI2
aI3
aI4
aI5
aI6
aI7
aI8
aI9
aI10
aI11
aI12
aI13
aI14
aI15
aI16
aI17
aI18
aI19
aI20
aI21
aI22
aI23
aI24
ag103
atp453
bsg38
Nstp454
Rp455
ag17
(g41
(dp456
g20
g21
(g22
(I0
tp457
g24
tp458
Rp459
(I1
(L12L
tp460
g49
I00
S'\x00\x00\x00\x00\x00\x00\x00\x00\x01\x00\x00\x00\x00\x00\x00\x00\x02\x00\x00\x00\x00\x00\x00\x00\x03\x00\x00\x00\x00\x00\x00\x00\x04\x00\x00\x00\x00\x00\x00\x00\x05\x00\x00\x00\x00\x00\x00\x00\x06\x00\x00\x00\x00\x00\x00\x00\x07\x00\x00\x00\x00\x00\x00\x00\x08\x00\x00\x00\x00\x00\x00\x00\t\x00\x00\x00\x00\x00\x00\x00\n\x00\x00\x00\x00\x00\x00\x00\x0b\x00\x00\x00\x00\x00\x00\x00'
p461
tp462
bsg38
Nstp463
Rp464
a(lp465
g21
(g22
(I0
tp466
g24
tp467
Rp468
(I1
(L25L
L12L
tp469
g31
I00
(lp470
V0.47
p471
aV0.48
p472
aV0.44
p473
aV0.38
p474
aV0.36
p475
aV0.32
p476
aV0.31
p477
aV0.31
p478
aV0.31
p479
aV0.34
p480
aV0.41
p481
aV0.48
p482
aV0.42
p483
aV0.42
p484
aV0.39
p485
aV0.36
p486
aV0.34
p487
aV0.30
p488
aV0.29
p489
aV0.29
p490
aV0.29
p491
aV0.32
p492
aV0.36
p493
aV0.43
p494
aV0.40
p495
aV0.41
p496
aV0.38
p497
aV0.36
p498
aV0.34
p499
aV0.29
p500
aV0.29
p501
aV0.29
p502
aV0.29
p503
aV0.32
p504
aV0.35
p505
aV0.41
p506
aV0.40
p507
aV0.41
p508
aV0.38
p509
aV0.35
p510
aV0.34
p511
aV0.29
p512
aV0.28
p513
aV0.28
p514
aV0.28
p515
aV0.31
p516
aV0.34
p517
aV0.41
p518
aV0.39
p519
aV0.40
p520
aV0.37
p521
aV0.38
p522
aV0.37
p523
aV0.32
p524
aV0.31
p525
aV0.31
p526
aV0.31
p527
aV0.34
p528
aV0.34
p529
aV0.40
p530
aV0.43
p531
aV0.44
p532
aV0.40
p533
aV0.45
p534
aV0.43
p535
aV0.37
p536
aV0.36
p537
aV0.37
p538
aV0.38
p539
aV0.43
p540
aV0.37
p541
aV0.44
p542
aV0.52
p543
aV0.52
p544
aV0.47
p545
aV0.52
p546
aV0.48
p547
aV0.42
p548
aV0.42
p549
aV0.43
p550
aV0.46
p551
aV0.52
p552
aV0.44
p553
aV0.53
p554
aV0.63
p555
aV0.61
p556
aV0.53
p557
aV0.46
p558
aV0.41
p559
aV0.36
p560
aV0.36
p561
aV0.37
p562
aV0.40
p563
aV0.47
p564
aV0.51
p565
aV0.63
p566
aV0.56
p567
aV0.54
p568
aV0.46
p569
aV0.38
p570
aV0.35
p571
aV0.31
p572
aV0.31
p573
aV0.31
p574
aV0.32
p575
aV0.37
p576
aV0.46
p577
aV0.56
p578
aV0.44
p579
aV0.43
p580
aV0.38
p581
aV0.37
p582
aV0.34
p583
aV0.30
p584
aV0.30
p585
aV0.30
p586
aV0.31
p587
aV0.35
p588
aV0.38
p589
aV0.45
p590
aV0.43
p591
aV0.41
p592
aV0.37
p593
aV0.36
p594
aV0.34
p595
aV0.30
p596
aV0.30
p597
aV0.30
p598
aV0.31
p599
aV0.34
p600
aV0.36
p601
aV0.43
p602
aV0.42
p603
aV0.40
p604
aV0.36
p605
aV0.36
p606
aV0.33
p607
aV0.30
p608
aV0.31
p609
aV0.30
p610
aV0.31
p611
aV0.34
p612
aV0.36
p613
aV0.42
p614
aV0.42
p615
aV0.39
p616
aV0.35
p617
aV0.36
p618
aV0.34
p619
aV0.30
p620
aV0.32
p621
aV0.31
p622
aV0.32
p623
aV0.35
p624
aV0.35
p625
aV0.41
p626
aV0.42
p627
aV0.40
p628
aV0.36
p629
aV0.37
p630
aV0.35
p631
aV0.31
p632
aV0.35
p633
aV0.34
p634
aV0.35
p635
aV0.35
p636
aV0.36
p637
aV0.42
p638
aV0.43
p639
aV0.41
p640
aV0.37
p641
aV0.38
p642
aV0.37
p643
aV0.33
p644
aV0.43
p645
aV0.38
p646
aV0.38
p647
aV0.37
p648
aV0.37
p649
aV0.43
p650
aV0.47
p651
aV0.44
p652
aV0.39
p653
aV0.44
p654
aV0.43
p655
aV0.38
p656
aV0.54
p657
aV0.45
p658
aV0.46
p659
aV0.44
p660
aV0.41
p661
aV0.48
p662
aV0.59
p663
aV0.54
p664
aV0.47
p665
aV0.54
p666
aV0.52
p667
aV0.47
p668
aV0.73
p669
aV0.58
p670
aV0.60
p671
aV0.56
p672
aV0.54
p673
aV0.62
p674
aV0.81
p675
aV0.73
p676
aV0.62
p677
aV0.61
p678
aV0.58
p679
aV0.52
p680
aV0.76
p681
aV0.62
p682
aV0.66
p683
aV0.67
p684
aV0.75
p685
aV0.86
p686
aV0.95
p687
aV0.87
p688
aV0.74
p689
aV0.68
p690
aV0.64
p691
aV0.57
p692
aV0.78
p693
aV0.66
p694
aV0.72
p695
aV0.78
p696
aV0.86
p697
aV0.97
p698
aV0.98
p699
aV0.95
p700
aV0.85
p701
aV0.78
p702
aV0.73
p703
aV0.65
p704
aV0.80
p705
aV0.73
p706
aV0.81
p707
aV0.83
p708
aV0.86
p709
aV0.95
p710
aV0.94
p711
aV0.94
p712
aV0.88
p713
aV0.80
p714
aV0.77
p715
aV0.70
p716
aV0.81
p717
aV0.76
p718
aV0.76
p719
aV0.77
p720
aV0.84
p721
aV0.93
p722
aV0.87
p723
aV0.87
p724
aV0.81
p725
aV0.68
p726
aV0.65
p727
aV0.60
p728
aV0.66
p729
aV0.61
p730
aV0.62
p731
aV0.64
p732
aV0.78
p733
aV0.87
p734
aV0.73
p735
aV0.73
p736
aV0.68
p737
aV0.56
p738
aV0.54
p739
aV0.49
p740
aV0.51
p741
aV0.49
p742
aV0.49
p743
aV0.53
p744
aV0.65
p745
aV0.73
p746
aV0.60
p747
aV0.61
p748
aV0.56
p749
aV0.44
p750
aV0.41
p751
aV0.36
p752
aV0.36
p753
aV0.36
p754
aV0.36
p755
aV0.40
p756
aV0.53
p757
aV0.61
p758
aVjanuary
p759
aVfebruary
p760
aVmarch
p761
aVapril
p762
aVmay
p763
aVjune
p764
aVjuly
p765
aVaugust
p766
aVseptember
p767
aVoctober
p768
aVnovember
p769
aVdecember
p770
atp771
ba(lp772
g17
(g18
(dp773
g20
g21
(g22
(I0
tp774
g24
tp775
Rp776
(I1
(L25L
tp777
g31
I00
(lp778
I1
aI2
aI3
aI4
aI5
aI6
aI7
aI8
aI9
aI10
aI11
aI12
aI13
aI14
aI15
aI16
aI17
aI18
aI19
aI20
aI21
aI22
aI23
aI24
ag103
atp779
bsg38
Nstp780
Rp781
a(dp782
g76
(dp783
g78
g446
sg79
(lp784
(dp785
g82
g83
(I0
I25
L1L
tp786
Rp787
sg86
g468
sasstp788
bsbsS'peak'
p789
g2
(g3
g4
Ntp790
Rp791
(dp792
g8
g9
sg10
g11
sg12
g2
(g13
g4
Ntp793
Rp794
((lp795
g17
(g18
(dp796
g20
g21
(g22
(I0
tp797
g24
tp798
Rp799
(I1
(L25L
tp800
g31
I00
(lp801
I1
aI2
aI3
aI4
aI5
aI6
aI7
aI8
aI9
aI10
aI11
aI12
aI13
aI14
aI15
aI16
aI17
aI18
aI19
aI20
aI21
aI22
aI23
aI24
ag103
atp802
bsg38
Nstp803
Rp804
ag17
(g41
(dp805
g20
g21
(g22
(I0
tp806
g24
tp807
Rp808
(I1
(L12L
tp809
g49
I00
S'\x00\x00\x00\x00\x00\x00\x00\x00\x01\x00\x00\x00\x00\x00\x00\x00\x02\x00\x00\x00\x00\x00\x00\x00\x03\x00\x00\x00\x00\x00\x00\x00\x04\x00\x00\x00\x00\x00\x00\x00\x05\x00\x00\x00\x00\x00\x00\x00\x06\x00\x00\x00\x00\x00\x00\x00\x07\x00\x00\x00\x00\x00\x00\x00\x08\x00\x00\x00\x00\x00\x00\x00\t\x00\x00\x00\x00\x00\x00\x00\n\x00\x00\x00\x00\x00\x00\x00\x0b\x00\x00\x00\x00\x00\x00\x00'
p810
tp811
bsg38
Nstp812
Rp813
a(lp814
g21
(g22
(I0
tp815
g24
tp816
Rp817
(I1
(L25L
L12L
tp818
g31
I00
(lp819
V0.51
p820
aV0.49
p821
aV0.46
p822
aV0.40
p823
aV0.39
p824
aV0.33
p825
aV0.31
p826
aV0.31
p827
aV0.32
p828
aV0.40
p829
aV0.43
p830
aV0.49
p831
aV0.46
p832
aV0.44
p833
aV0.41
p834
aV0.38
p835
aV0.37
p836
aV0.32
p837
aV0.29
p838
aV0.29
p839
aV0.30
p840
aV0.35
p841
aV0.38
p842
aV0.44
p843
aV0.45
p844
aV0.42
p845
aV0.39
p846
aV0.38
p847
aV0.37
p848
aV0.32
p849
aV0.29
p850
aV0.29
p851
aV0.30
p852
aV0.35
p853
aV0.37
p854
aV0.42
p855
aV0.44
p856
aV0.42
p857
aV0.39
p858
aV0.37
p859
aV0.36
p860
aV0.32
p861
aV0.28
p862
aV0.28
p863
aV0.29
p864
aV0.35
p865
aV0.36
p866
aV0.42
p867
aV0.43
p868
aV0.42
p869
aV0.39
p870
aV0.40
p871
aV0.39
p872
aV0.34
p873
aV0.31
p874
aV0.31
p875
aV0.32
p876
aV0.39
p877
aV0.35
p878
aV0.41
p879
aV0.47
p880
aV0.45
p881
aV0.42
p882
aV0.48
p883
aV0.46
p884
aV0.40
p885
aV0.36
p886
aV0.37
p887
aV0.39
p888
aV0.48
p889
aV0.39
p890
aV0.45
p891
aV0.58
p892
aV0.55
p893
aV0.49
p894
aV0.54
p895
aV0.50
p896
aV0.44
p897
aV0.42
p898
aV0.43
p899
aV0.46
p900
aV0.56
p901
aV0.48
p902
aV0.55
p903
aV0.67
p904
aV0.63
p905
aV0.54
p906
aV0.47
p907
aV0.44
p908
aV0.38
p909
aV0.36
p910
aV0.38
p911
aV0.41
p912
aV0.53
p913
aV0.54
p914
aV0.65
p915
aV0.61
p916
aV0.55
p917
aV0.47
p918
aV0.39
p919
aV0.38
p920
aV0.32
p921
aV0.31
p922
aV0.31
p923
aV0.33
p924
aV0.46
p925
aV0.49
p926
aV0.58
p927
aV0.49
p928
aV0.44
p929
aV0.39
p930
aV0.38
p931
aV0.37
p932
aV0.32
p933
aV0.32
p934
aV0.30
p935
aV0.32
p936
aV0.36
p937
aV0.40
p938
aV0.48
p939
aV0.48
p940
aV0.43
p941
aV0.37
p942
aV0.38
p943
aV0.37
p944
aV0.31
p945
aV0.34
p946
aV0.30
p947
aV0.31
p948
aV0.35
p949
aV0.39
p950
aV0.46
p951
aV0.47
p952
aV0.42
p953
aV0.38
p954
aV0.37
p955
aV0.36
p956
aV0.31
p957
aV0.41
p958
aV0.31
p959
aV0.31
p960
aV0.35
p961
aV0.39
p962
aV0.46
p963
aV0.46
p964
aV0.42
p965
aV0.37
p966
aV0.38
p967
aV0.36
p968
aV0.31
p969
aV0.53
p970
aV0.38
p971
aV0.32
p972
aV0.35
p973
aV0.39
p974
aV0.45
p975
aV0.46
p976
aV0.42
p977
aV0.38
p978
aV0.38
p979
aV0.37
p980
aV0.32
p981
aV0.69
p982
aV0.48
p983
aV0.34
p984
aV0.36
p985
aV0.39
p986
aV0.45
p987
aV0.47
p988
aV0.43
p989
aV0.38
p990
aV0.40
p991
aV0.38
p992
aV0.33
p993
aV0.84
p994
aV0.58
p995
aV0.38
p996
aV0.38
p997
aV0.40
p998
aV0.46
p999
aV0.50
p1000
aV0.46
p1001
aV0.40
p1002
aV0.46
p1003
aV0.44
p1004
aV0.38
p1005
aV0.95
p1006
aV0.67
p1007
aV0.50
p1008
aV0.45
p1009
aV0.44
p1010
aV0.51
p1011
aV0.62
p1012
aV0.56
p1013
aV0.48
p1014
aV0.58
p1015
aV0.54
p1016
aV0.52
p1017
aV1.34
p1018
aV0.87
p1019
aV0.67
p1020
aV0.58
p1021
aV0.57
p1022
aV0.65
p1023
aV0.85
p1024
aV0.75
p1025
aV0.63
p1026
aV0.63
p1027
aV0.60
p1028
aV0.58
p1029
aV1.32
p1030
aV0.92
p1031
aV0.74
p1032
aV0.69
p1033
aV0.78
p1034
aV0.90
p1035
aV0.98
p1036
aV0.89
p1037
aV0.76
p1038
aV0.71
p1039
aV0.65
p1040
aV0.63
p1041
aV1.25
p1042
aV0.89
p1043
aV0.72
p1044
aV0.80
p1045
aV0.90
p1046
aV1.01
p1047
aV1.00
p1048
aV0.97
p1049
aV0.86
p1050
aV0.82
p1051
aV0.74
p1052
aV0.65
p1053
aV1.11
p1054
aV0.89
p1055
aV0.81
p1056
aV0.83
p1057
aV0.89
p1058
aV0.99
p1059
aV0.96
p1060
aV0.95
p1061
aV0.89
p1062
aV0.82
p1063
aV0.78
p1064
aV0.70
p1065
aV1.04
p1066
aV0.89
p1067
aV0.77
p1068
aV0.83
p1069
aV0.86
p1070
aV0.97
p1071
aV0.90
p1072
aV0.89
p1073
aV0.82
p1074
aV0.69
p1075
aV0.67
p1076
aV0.60
p1077
aV0.80
p1078
aV0.71
p1079
aV0.62
p1080
aV0.77
p1081
aV0.80
p1082
aV0.91
p1083
aV0.76
p1084
aV0.74
p1085
aV0.69
p1086
aV0.57
p1087
aV0.55
p1088
aV0.50
p1089
aV0.62
p1090
aV0.54
p1091
aV0.49
p1092
aV0.64
p1093
aV0.67
p1094
aV0.77
p1095
aV0.64
p1096
aV0.63
p1097
aV0.58
p1098
aV0.45
p1099
aV0.43
p1100
aV0.38
p1101
aV0.44
p1102
aV0.36
p1103
aV0.36
p1104
aV0.52
p1105
aV0.56
p1106
aV0.65
p1107
aVjanuary
p1108
aVfebruary
p1109
aVmarch
p1110
aVapril
p1111
aVmay
p1112
aVjune
p1113
aVjuly
p1114
aVaugust
p1115
aVseptember
p1116
aVoctober
p1117
aVnovember
p1118
aVdecember
p1119
atp1120
ba(lp1121
g17
(g18
(dp1122
g20
g21
(g22
(I0
tp1123
g24
tp1124
Rp1125
(I1
(L25L
tp1126
g31
I00
(lp1127
I1
aI2
aI3
aI4
aI5
aI6
aI7
aI8
aI9
aI10
aI11
aI12
aI13
aI14
aI15
aI16
aI17
aI18
aI19
aI20
aI21
aI22
aI23
aI24
ag103
atp1128
bsg38
Nstp1129
Rp1130
a(dp1131
g76
(dp1132
g78
g795
sg79
(lp1133
(dp1134
g82
g83
(I0
I25
L1L
tp1135
Rp1136
sg86
g817
sasstp1137
bsbssS'doc'
p1138
(lp1139
(dp1140
S'type'
p1141
S'value'
p1142
sg38
S'OPEX_saving'
p1143
sS'id'
p1144
S'Saving (%)'
p1145
sa(dp1146
g1141
S'table'
p1147
sg38
g1
sg1144
S'1.1.2.1 Renewables (PV and Solar Thermal)'
p1148
sa(dp1149
g1141
g1147
sg38
S'energy_storage_new_capacity'
p1150
sg1144
S'++++++ 1.2 Energy Storage'
p1151
sa(dp1152
g1141
S'timeserie'
p1153
sg38
S'hourly_pv_self_consumpt'
p1154
sg1144
S'*** Hourly PV output for self consumption'
p1155
sa(dp1156
g1141
g1153
sg38
S'hourly_pv_export'
p1157
sg1144
S'*** Hourly PV output for export '
p1158
sa(dp1159
g1141
g1153
sg38
S'elec_stored_stationnary_batteries'
p1160
sg1144
S'*** Electricity stored in Stationary Batteries (kWh)'
p1161
sa(dp1162
g1141
g1153
sg38
S'elec_for_stationnary_battery_charging_before_eff'
p1163
sg1144
S'Electricity for Stationary Battery charging (before charging efficiency) (kW)'
p1164
sa(dp1165
g1141
g1153
sg38
S'elec_provided_by_stationnary_battery_charging_after_eff'
p1166
sg1144
S'*** Electricity Provided by the Stationary Battery (after discharging efficiency) (kW)'
p1167
sa(dp1168
g1141
g1153
sg38
g88
sg1144
S'*** Hourly purchase from electric utility (kW)'
p1169
sasg1160
I00
sg1166
I00
sg1143
F6.0
sg1150
g2
(g3
g4
Ntp1170
Rp1171
(dp1172
g8
g9
sg10
g11
sg12
g2
(g13
g4
Ntp1173
Rp1174
((lp1175
g17
(g18
(dp1176
g20
g21
(g22
(I0
tp1177
g24
tp1178
Rp1179
(I1
(L1L
tp1180
g31
I00
(lp1181
VTechnology
p1182
atp1183
bsg38
Nstp1184
Rp1185
ag17
(g41
(dp1186
g20
g21
(g22
(I0
tp1187
g24
tp1188
Rp1189
(I1
(L1L
tp1190
g49
I00
S'\x00\x00\x00\x00\x00\x00\x00\x00'
p1191
tp1192
bsg38
Nstp1193
Rp1194
a(lp1195
g21
(g22
(I0
tp1196
g24
tp1197
Rp1198
(I1
(L1L
L1L
tp1199
g31
I00
(lp1200
S''
p1201
atp1202
ba(lp1203
g17
(g18
(dp1204
g20
g21
(g22
(I0
tp1205
g24
tp1206
Rp1207
(I1
(L1L
tp1208
g31
I00
(lp1209
g1182
atp1210
bsg38
Nstp1211
Rp1212
a(dp1213
g76
(dp1214
g78
g1175
sg79
(lp1215
(dp1216
g82
g83
(L0L
L1L
I1
tp1217
Rp1218
sg86
g1198
sasstp1219
bsbsg1163
I00
sg1154
I00
sg1157
I00
s.