(dp0
S'renewables_new_capacity'
p1
ccopy_reg
_reconstructor
p2
(cpandas.core.frame
DataFrame
p3
c__builtin__
object
p4
Ntp5
Rp6
(dp7
S'_metadata'
p8
(lp9
sS'_typ'
p10
S'dataframe'
p11
sS'_data'
p12
g2
(cpandas.core.internals
BlockManager
p13
g4
Ntp14
Rp15
((lp16
cpandas.indexes.base
_new_Index
p17
(cpandas.indexes.base
Index
p18
(dp19
S'data'
p20
cnumpy.core.multiarray
_reconstruct
p21
(cnumpy
ndarray
p22
(I0
tp23
S'b'
p24
tp25
Rp26
(I1
(L2L
tp27
cnumpy
dtype
p28
(S'O8'
p29
I0
I1
tp30
Rp31
(I3
S'|'
p32
NNNI-1
I-1
I63
tp33
bI00
(lp34
VExisting Capacity (kW)
p35
aVTechnology
p36
atp37
bsS'name'
p38
Nstp39
Rp40
ag17
(cpandas.indexes.numeric
Int64Index
p41
(dp42
g20
g21
(g22
(I0
tp43
g24
tp44
Rp45
(I1
(L1L
tp46
g28
(S'i8'
p47
I0
I1
tp48
Rp49
(I3
S'<'
p50
NNNI-1
I-1
I0
tp51
bI00
S'\x00\x00\x00\x00\x00\x00\x00\x00'
p52
tp53
bsg38
Nstp54
Rp55
a(lp56
g21
(g22
(I0
tp57
g24
tp58
Rp59
(I1
(L2L
L1L
tp60
g31
I00
(lp61
V"<TABLE>"
p62
aV"++++++ 1.2 Energy Storage"
p63
atp64
ba(lp65
g17
(g18
(dp66
g20
g21
(g22
(I0
tp67
g24
tp68
Rp69
(I1
(L2L
tp70
g31
I00
(lp71
g35
ag36
atp72
bsg38
Nstp73
Rp74
a(dp75
S'0.14.1'
p76
(dp77
S'axes'
p78
g16
sS'blocks'
p79
(lp80
(dp81
S'mgr_locs'
p82
c__builtin__
slice
p83
(I0
I2
L1L
tp84
Rp85
sS'values'
p86
g59
sasstp87
bsbsS'purchase_from_utility'
p88
(dp89
S'week'
p90
g2
(g3
g4
Ntp91
Rp92
(dp93
g8
g9
sg10
g11
sg12
g2
(g13
g4
Ntp94
Rp95
((lp96
g17
(g18
(dp97
g20
g21
(g22
(I0
tp98
g24
tp99
Rp100
(I1
(L25L
tp101
g31
I00
(lp102
I1
aI2
aI3
aI4
aI5
aI6
aI7
aI8
aI9
aI10
aI11
aI12
aI13
aI14
aI15
aI16
aI17
aI18
aI19
aI20
aI21
aI22
aI23
aI24
aS'month'
p103
atp104
bsg38
Nstp105
Rp106
ag17
(g41
(dp107
g20
g21
(g22
(I0
tp108
g24
tp109
Rp110
(I1
(L12L
tp111
g49
I00
S'\x00\x00\x00\x00\x00\x00\x00\x00\x01\x00\x00\x00\x00\x00\x00\x00\x02\x00\x00\x00\x00\x00\x00\x00\x03\x00\x00\x00\x00\x00\x00\x00\x04\x00\x00\x00\x00\x00\x00\x00\x05\x00\x00\x00\x00\x00\x00\x00\x06\x00\x00\x00\x00\x00\x00\x00\x07\x00\x00\x00\x00\x00\x00\x00\x08\x00\x00\x00\x00\x00\x00\x00\t\x00\x00\x00\x00\x00\x00\x00\n\x00\x00\x00\x00\x00\x00\x00\x0b\x00\x00\x00\x00\x00\x00\x00'
p112
tp113
bsg38
Nstp114
Rp115
a(lp116
g21
(g22
(I0
tp117
g24
tp118
Rp119
(I1
(L25L
L12L
tp120
g31
I00
(lp121
V0.87
p122
aV0.86
p123
aV0.80
p124
aV0.66
p125
aV0.62
p126
aV0.49
p127
aV0.47
p128
aV0.47
p129
aV0.49
p130
aV0.61
p131
aV0.77
p132
aV0.85
p133
aV0.75
p134
aV0.75
p135
aV0.70
p136
aV0.62
p137
aV0.58
p138
aV0.44
p139
aV0.42
p140
aV0.42
p141
aV0.45
p142
aV0.57
p143
aV0.66
p144
aV0.74
p145
aV0.71
p146
aV0.71
p147
aV0.66
p148
aV0.62
p149
aV0.59
p150
aV0.45
p151
aV0.41
p152
aV0.41
p153
aV0.44
p154
aV0.57
p155
aV0.62
p156
aV0.69
p157
aV0.71
p158
aV0.71
p159
aV0.65
p160
aV0.63
p161
aV0.60
p162
aV0.46
p163
aV0.41
p164
aV0.40
p165
aV0.45
p166
aV0.58
p167
aV0.62
p168
aV0.69
p169
aV0.71
p170
aV0.71
p171
aV0.65
p172
aV0.68
p173
aV0.66
p174
aV0.52
p175
aV0.46
p176
aV0.45
p177
aV0.51
p178
aV0.63
p179
aV0.62
p180
aV0.69
p181
aV0.76
p182
aV0.77
p183
aV0.71
p184
aV0.84
p185
aV0.79
p186
aV0.65
p187
aV0.59
p188
aV0.58
p189
aV0.68
p190
aV0.82
p191
aV0.67
p192
aV0.75
p193
aV0.97
p194
aV0.96
p195
aV0.86
p196
aV1.03
p197
aV0.94
p198
aV0.79
p199
aV0.75
p200
aV0.76
p201
aV0.89
p202
aV1.08
p203
aV0.84
p204
aV0.95
p205
aV1.26
p206
aV1.20
p207
aV1.03
p208
aV0.97
p209
aV0.87
p210
aV0.73
p211
aV0.70
p212
aV0.70
p213
aV0.84
p214
aV1.04
p215
aV1.05
p216
aV1.22
p217
aV1.20
p218
aV1.13
p219
aV0.96
p220
aV0.85
p221
aV0.78
p222
aV0.68
p223
aV0.65
p224
aV0.62
p225
aV0.72
p226
aV0.87
p227
aV1.02
p228
aV1.16
p229
aV1.01
p230
aV0.96
p231
aV0.86
p232
aV0.85
p233
aV0.78
p234
aV0.68
p235
aV0.66
p236
aV0.61
p237
aV0.71
p238
aV0.83
p239
aV0.88
p240
aV0.98
p241
aV1.01
p242
aV0.95
p243
aV0.86
p244
aV0.83
p245
aV0.77
p246
aV0.68
p247
aV0.67
p248
aV0.63
p249
aV0.71
p250
aV0.80
p251
aV0.88
p252
aV0.97
p253
aV0.98
p254
aV0.92
p255
aV0.84
p256
aV0.79
p257
aV0.74
p258
aV0.66
p259
aV0.67
p260
aV0.62
p261
aV0.69
p262
aV0.77
p263
aV0.85
p264
aV0.94
p265
aV0.95
p266
aV0.88
p267
aV0.81
p268
aV0.75
p269
aV0.70
p270
aV0.63
p271
aV0.68
p272
aV0.61
p273
aV0.67
p274
aV0.73
p275
aV0.81
p276
aV0.91
p277
aV0.92
p278
aV0.84
p279
aV0.77
p280
aV0.73
p281
aV0.69
p282
aV0.63
p283
aV0.74
p284
aV0.63
p285
aV0.66
p286
aV0.72
p287
aV0.78
p288
aV0.88
p289
aV0.91
p290
aV0.84
p291
aV0.76
p292
aV0.75
p293
aV0.71
p294
aV0.65
p295
aV0.89
p296
aV0.74
p297
aV0.69
p298
aV0.75
p299
aV0.78
p300
aV0.88
p301
aV0.98
p302
aV0.89
p303
aV0.80
p304
aV0.85
p305
aV0.81
p306
aV0.76
p307
aV1.10
p308
aV0.91
p309
aV0.82
p310
aV0.88
p311
aV0.88
p312
aV0.98
p313
aV1.25
p314
aV1.09
p315
aV0.96
p316
aV1.05
p317
aV1.00
p318
aV0.96
p319
aV1.43
p320
aV1.19
p321
aV1.05
p322
aV1.14
p323
aV1.16
p324
aV1.30
p325
aV1.75
p326
aV1.51
p327
aV1.28
p328
aV1.14
p329
aV1.06
p330
aV1.02
p331
aV1.42
p332
aV1.24
p333
aV1.18
p334
aV1.36
p335
aV1.65
p336
aV1.83
p337
aV2.03
p338
aV1.80
p339
aV1.52
p340
aV1.29
p341
aV1.16
p342
aV1.08
p343
aV1.41
p344
aV1.28
p345
aV1.32
p346
aV1.57
p347
aV1.87
p348
aV2.05
p349
aV2.03
p350
aV1.94
p351
aV1.73
p352
aV1.53
p353
aV1.36
p354
aV1.23
p355
aV1.49
p356
aV1.42
p357
aV1.54
p358
aV1.65
p359
aV1.82
p360
aV1.93
p361
aV1.89
p362
aV1.88
p363
aV1.79
p364
aV1.57
p365
aV1.50
p366
aV1.37
p367
aV1.56
p368
aV1.49
p369
aV1.45
p370
aV1.51
p371
aV1.74
p372
aV1.85
p373
aV1.74
p374
aV1.72
p375
aV1.64
p376
aV1.29
p377
aV1.24
p378
aV1.15
p379
aV1.23
p380
aV1.15
p381
aV1.16
p382
aV1.24
p383
aV1.60
p384
aV1.70
p385
aV1.44
p386
aV1.43
p387
aV1.36
p388
aV1.02
p389
aV0.98
p390
aV0.88
p391
aV0.89
p392
aV0.85
p393
aV0.88
p394
aV0.97
p395
aV1.31
p396
aV1.40
p397
aV1.16
p398
aV1.15
p399
aV1.09
p400
aV0.75
p401
aV0.70
p402
aV0.59
p403
aV0.58
p404
aV0.58
p405
aV0.60
p406
aV0.70
p407
aV1.04
p408
aV1.13
p409
aVjanuary
p410
aVfebruary
p411
aVmarch
p412
aVapril
p413
aVmay
p414
aVjune
p415
aVjuly
p416
aVaugust
p417
aVseptember
p418
aVoctober
p419
aVnovember
p420
aVdecember
p421
atp422
ba(lp423
g17
(g18
(dp424
g20
g21
(g22
(I0
tp425
g24
tp426
Rp427
(I1
(L25L
tp428
g31
I00
(lp429
I1
aI2
aI3
aI4
aI5
aI6
aI7
aI8
aI9
aI10
aI11
aI12
aI13
aI14
aI15
aI16
aI17
aI18
aI19
aI20
aI21
aI22
aI23
aI24
ag103
atp430
bsg38
Nstp431
Rp432
a(dp433
g76
(dp434
g78
g96
sg79
(lp435
(dp436
g82
g83
(I0
I25
L1L
tp437
Rp438
sg86
g119
sasstp439
bsbsS'weekend'
p440
g2
(g3
g4
Ntp441
Rp442
(dp443
g8
g9
sg10
g11
sg12
g2
(g13
g4
Ntp444
Rp445
((lp446
g17
(g18
(dp447
g20
g21
(g22
(I0
tp448
g24
tp449
Rp450
(I1
(L25L
tp451
g31
I00
(lp452
I1
aI2
aI3
aI4
aI5
aI6
aI7
aI8
aI9
aI10
aI11
aI12
aI13
aI14
aI15
aI16
aI17
aI18
aI19
aI20
aI21
aI22
aI23
aI24
ag103
atp453
bsg38
Nstp454
Rp455
ag17
(g41
(dp456
g20
g21
(g22
(I0
tp457
g24
tp458
Rp459
(I1
(L12L
tp460
g49
I00
S'\x00\x00\x00\x00\x00\x00\x00\x00\x01\x00\x00\x00\x00\x00\x00\x00\x02\x00\x00\x00\x00\x00\x00\x00\x03\x00\x00\x00\x00\x00\x00\x00\x04\x00\x00\x00\x00\x00\x00\x00\x05\x00\x00\x00\x00\x00\x00\x00\x06\x00\x00\x00\x00\x00\x00\x00\x07\x00\x00\x00\x00\x00\x00\x00\x08\x00\x00\x00\x00\x00\x00\x00\t\x00\x00\x00\x00\x00\x00\x00\n\x00\x00\x00\x00\x00\x00\x00\x0b\x00\x00\x00\x00\x00\x00\x00'
p461
tp462
bsg38
Nstp463
Rp464
a(lp465
g21
(g22
(I0
tp466
g24
tp467
Rp468
(I1
(L25L
L12L
tp469
g31
I00
(lp470
V0.91
p471
aV0.92
p472
aV0.87
p473
aV0.71
p474
aV0.66
p475
aV0.54
p476
aV0.50
p477
aV0.49
p478
aV0.51
p479
aV0.63
p480
aV0.80
p481
aV0.92
p482
aV0.79
p483
aV0.81
p484
aV0.76
p485
aV0.66
p486
aV0.62
p487
aV0.50
p488
aV0.44
p489
aV0.44
p490
aV0.46
p491
aV0.59
p492
aV0.69
p493
aV0.81
p494
aV0.74
p495
aV0.76
p496
aV0.72
p497
aV0.66
p498
aV0.62
p499
aV0.51
p500
aV0.43
p501
aV0.43
p502
aV0.46
p503
aV0.58
p504
aV0.65
p505
aV0.76
p506
aV0.74
p507
aV0.76
p508
aV0.72
p509
aV0.67
p510
aV0.63
p511
aV0.52
p512
aV0.44
p513
aV0.42
p514
aV0.47
p515
aV0.60
p516
aV0.64
p517
aV0.76
p518
aV0.74
p519
aV0.76
p520
aV0.72
p521
aV0.72
p522
aV0.69
p523
aV0.58
p524
aV0.50
p525
aV0.47
p526
aV0.53
p527
aV0.66
p528
aV0.64
p529
aV0.76
p530
aV0.80
p531
aV0.83
p532
aV0.78
p533
aV0.89
p534
aV0.83
p535
aV0.72
p536
aV0.65
p537
aV0.62
p538
aV0.73
p539
aV0.86
p540
aV0.70
p541
aV0.82
p542
aV1.03
p543
aV1.05
p544
aV0.94
p545
aV1.10
p546
aV0.98
p547
aV0.87
p548
aV0.82
p549
aV0.81
p550
aV0.96
p551
aV1.14
p552
aV0.88
p553
aV1.04
p554
aV1.34
p555
aV1.31
p556
aV1.13
p557
aV1.07
p558
aV0.90
p559
aV0.82
p560
aV0.78
p561
aV0.76
p562
aV0.91
p563
aV1.12
p564
aV1.12
p565
aV1.32
p566
aV1.29
p567
aV1.23
p568
aV1.06
p569
aV0.96
p570
aV0.82
p571
aV0.77
p572
aV0.73
p573
aV0.67
p574
aV0.80
p575
aV0.97
p576
aV1.10
p577
aV1.26
p578
aV1.11
p579
aV1.06
p580
aV0.96
p581
aV0.96
p582
aV0.82
p583
aV0.78
p584
aV0.74
p585
aV0.68
p586
aV0.79
p587
aV0.93
p588
aV0.97
p589
aV1.07
p590
aV1.12
p591
aV1.06
p592
aV0.97
p593
aV0.94
p594
aV0.81
p595
aV0.77
p596
aV0.76
p597
aV0.69
p598
aV0.79
p599
aV0.92
p600
aV0.98
p601
aV1.06
p602
aV1.10
p603
aV1.03
p604
aV0.94
p605
aV0.91
p606
aV0.77
p607
aV0.74
p608
aV0.75
p609
aV0.68
p610
aV0.77
p611
aV0.87
p612
aV0.96
p613
aV1.03
p614
aV1.05
p615
aV0.98
p616
aV0.90
p617
aV0.87
p618
aV0.74
p619
aV0.71
p620
aV0.75
p621
aV0.68
p622
aV0.75
p623
aV0.83
p624
aV0.92
p625
aV0.99
p626
aV1.01
p627
aV0.94
p628
aV0.86
p629
aV0.84
p630
aV0.72
p631
aV0.69
p632
aV0.83
p633
aV0.72
p634
aV0.80
p635
aV0.81
p636
aV0.88
p637
aV0.95
p638
aV1.00
p639
aV0.92
p640
aV0.84
p641
aV0.86
p642
aV0.75
p643
aV0.73
p644
aV1.02
p645
aV0.80
p646
aV0.89
p647
aV0.83
p648
aV0.87
p649
aV0.95
p650
aV1.06
p651
aV0.97
p652
aV0.88
p653
aV0.96
p654
aV0.86
p655
aV0.86
p656
aV1.27
p657
aV0.94
p658
aV1.06
p659
aV0.97
p660
aV0.96
p661
aV1.05
p662
aV1.34
p663
aV1.18
p664
aV1.04
p665
aV1.16
p666
aV1.06
p667
aV1.09
p668
aV1.62
p669
aV1.23
p670
aV1.33
p671
aV1.25
p672
aV1.26
p673
aV1.38
p674
aV1.86
p675
aV1.63
p676
aV1.39
p677
aV1.26
p678
aV1.13
p679
aV1.13
p680
aV1.61
p681
aV1.29
p682
aV1.43
p683
aV1.47
p684
aV1.77
p685
aV1.95
p686
aV2.15
p687
aV1.92
p688
aV1.64
p689
aV1.40
p690
aV1.22
p691
aV1.21
p692
aV1.63
p693
aV1.35
p694
aV1.55
p695
aV1.70
p696
aV2.00
p697
aV2.18
p698
aV2.15
p699
aV2.08
p700
aV1.86
p701
aV1.65
p702
aV1.44
p703
aV1.37
p704
aV1.70
p705
aV1.50
p706
aV1.75
p707
aV1.78
p708
aV1.94
p709
aV2.06
p710
aV2.01
p711
aV2.02
p712
aV1.91
p713
aV1.71
p714
aV1.59
p715
aV1.53
p716
aV1.77
p717
aV1.59
p718
aV1.64
p719
aV1.65
p720
aV1.87
p721
aV1.97
p722
aV1.85
p723
aV1.85
p724
aV1.75
p725
aV1.44
p726
aV1.33
p727
aV1.27
p728
aV1.41
p729
aV1.24
p730
aV1.28
p731
aV1.37
p732
aV1.71
p733
aV1.82
p734
aV1.53
p735
aV1.53
p736
aV1.45
p737
aV1.14
p738
aV1.05
p739
aV0.94
p740
aV0.98
p741
aV0.91
p742
aV0.94
p743
aV1.07
p744
aV1.40
p745
aV1.51
p746
aV1.21
p747
aV1.23
p748
aV1.15
p749
aV0.85
p750
aV0.77
p751
aV0.63
p752
aV0.62
p753
aV0.61
p754
aV0.62
p755
aV0.78
p756
aV1.11
p757
aV1.22
p758
aVjanuary
p759
aVfebruary
p760
aVmarch
p761
aVapril
p762
aVmay
p763
aVjune
p764
aVjuly
p765
aVaugust
p766
aVseptember
p767
aVoctober
p768
aVnovember
p769
aVdecember
p770
atp771
ba(lp772
g17
(g18
(dp773
g20
g21
(g22
(I0
tp774
g24
tp775
Rp776
(I1
(L25L
tp777
g31
I00
(lp778
I1
aI2
aI3
aI4
aI5
aI6
aI7
aI8
aI9
aI10
aI11
aI12
aI13
aI14
aI15
aI16
aI17
aI18
aI19
aI20
aI21
aI22
aI23
aI24
ag103
atp779
bsg38
Nstp780
Rp781
a(dp782
g76
(dp783
g78
g446
sg79
(lp784
(dp785
g82
g83
(I0
I25
L1L
tp786
Rp787
sg86
g468
sasstp788
bsbsS'peak'
p789
g2
(g3
g4
Ntp790
Rp791
(dp792
g8
g9
sg10
g11
sg12
g2
(g13
g4
Ntp793
Rp794
((lp795
g17
(g18
(dp796
g20
g21
(g22
(I0
tp797
g24
tp798
Rp799
(I1
(L25L
tp800
g31
I00
(lp801
I1
aI2
aI3
aI4
aI5
aI6
aI7
aI8
aI9
aI10
aI11
aI12
aI13
aI14
aI15
aI16
aI17
aI18
aI19
aI20
aI21
aI22
aI23
aI24
ag103
atp802
bsg38
Nstp803
Rp804
ag17
(g41
(dp805
g20
g21
(g22
(I0
tp806
g24
tp807
Rp808
(I1
(L12L
tp809
g49
I00
S'\x00\x00\x00\x00\x00\x00\x00\x00\x01\x00\x00\x00\x00\x00\x00\x00\x02\x00\x00\x00\x00\x00\x00\x00\x03\x00\x00\x00\x00\x00\x00\x00\x04\x00\x00\x00\x00\x00\x00\x00\x05\x00\x00\x00\x00\x00\x00\x00\x06\x00\x00\x00\x00\x00\x00\x00\x07\x00\x00\x00\x00\x00\x00\x00\x08\x00\x00\x00\x00\x00\x00\x00\t\x00\x00\x00\x00\x00\x00\x00\n\x00\x00\x00\x00\x00\x00\x00\x0b\x00\x00\x00\x00\x00\x00\x00'
p810
tp811
bsg38
Nstp812
Rp813
a(lp814
g21
(g22
(I0
tp815
g24
tp816
Rp817
(I1
(L25L
L12L
tp818
g31
I00
(lp819
V1.01
p820
aV0.96
p821
aV0.91
p822
aV0.77
p823
aV0.74
p824
aV0.66
p825
aV0.52
p826
aV0.49
p827
aV0.62
p828
aV0.78
p829
aV0.87
p830
aV0.96
p831
aV0.91
p832
aV0.85
p833
aV0.81
p834
aV0.72
p835
aV0.70
p836
aV0.62
p837
aV0.45
p838
aV0.44
p839
aV0.55
p840
aV0.68
p841
aV0.75
p842
aV0.85
p843
aV0.87
p844
aV0.81
p845
aV0.77
p846
aV0.71
p847
aV0.70
p848
aV0.62
p849
aV0.44
p850
aV0.43
p851
aV0.55
p852
aV0.68
p853
aV0.71
p854
aV0.79
p855
aV0.86
p856
aV0.80
p857
aV0.77
p858
aV0.71
p859
aV0.70
p860
aV0.63
p861
aV0.45
p862
aV0.43
p863
aV0.55
p864
aV0.69
p865
aV0.70
p866
aV0.80
p867
aV0.85
p868
aV0.81
p869
aV0.77
p870
aV0.76
p871
aV0.77
p872
aV0.68
p873
aV0.52
p874
aV0.47
p875
aV0.60
p876
aV0.76
p877
aV0.70
p878
aV0.79
p879
aV0.91
p880
aV0.87
p881
aV0.84
p882
aV0.94
p883
aV0.91
p884
aV0.80
p885
aV0.66
p886
aV0.62
p887
aV0.78
p888
aV0.99
p889
aV0.76
p890
aV0.87
p891
aV1.16
p892
aV1.08
p893
aV0.99
p894
aV1.13
p895
aV1.05
p896
aV0.93
p897
aV0.82
p898
aV0.82
p899
aV1.00
p900
aV1.24
p901
aV0.96
p902
aV1.10
p903
aV1.45
p904
aV1.35
p905
aV1.16
p906
aV1.06
p907
aV0.98
p908
aV0.87
p909
aV0.76
p910
aV0.77
p911
aV0.94
p912
aV1.16
p913
aV1.20
p914
aV1.38
p915
aV1.40
p916
aV1.24
p917
aV1.08
p918
aV0.96
p919
aV0.91
p920
aV0.81
p921
aV0.70
p922
aV0.69
p923
aV0.83
p924
aV1.06
p925
aV1.15
p926
aV1.33
p927
aV1.21
p928
aV1.05
p929
aV0.96
p930
aV0.97
p931
aV0.94
p932
aV0.83
p933
aV0.74
p934
aV0.70
p935
aV0.84
p936
aV0.93
p937
aV1.02
p938
aV1.17
p939
aV1.23
p940
aV1.08
p941
aV0.96
p942
aV0.95
p943
aV0.92
p944
aV0.81
p945
aV0.77
p946
aV0.71
p947
aV0.82
p948
aV0.91
p949
aV1.03
p950
aV1.19
p951
aV1.18
p952
aV1.05
p953
aV0.94
p954
aV0.92
p955
aV0.89
p956
aV0.77
p957
aV0.91
p958
aV0.71
p959
aV0.80
p960
aV0.87
p961
aV1.02
p962
aV1.15
p963
aV1.14
p964
aV1.01
p965
aV0.92
p966
aV0.90
p967
aV0.85
p968
aV0.73
p969
aV1.16
p970
aV0.84
p971
aV0.86
p972
aV0.84
p973
aV0.99
p974
aV1.12
p975
aV1.09
p976
aV0.99
p977
aV0.88
p978
aV0.86
p979
aV0.83
p980
aV0.76
p981
aV1.47
p982
aV1.09
p983
aV0.80
p984
aV0.81
p985
aV0.96
p986
aV1.08
p987
aV1.08
p988
aV0.98
p989
aV0.87
p990
aV0.90
p991
aV0.84
p992
aV0.80
p993
aV1.74
p994
aV1.34
p995
aV0.93
p996
aV0.84
p997
aV0.96
p998
aV1.07
p999
aV1.13
p1000
aV1.03
p1001
aV0.90
p1002
aV1.02
p1003
aV0.94
p1004
aV1.01
p1005
aV2.05
p1006
aV1.56
p1007
aV1.20
p1008
aV0.98
p1009
aV1.05
p1010
aV1.16
p1011
aV1.40
p1012
aV1.23
p1013
aV1.06
p1014
aV1.25
p1015
aV1.15
p1016
aV1.30
p1017
aV2.54
p1018
aV1.93
p1019
aV1.62
p1020
aV1.28
p1021
aV1.34
p1022
aV1.49
p1023
aV1.94
p1024
aV1.67
p1025
aV1.40
p1026
aV1.32
p1027
aV1.23
p1028
aV1.33
p1029
aV2.42
p1030
aV1.86
p1031
aV1.63
p1032
aV1.50
p1033
aV1.84
p1034
aV2.06
p1035
aV2.21
p1036
aV1.95
p1037
aV1.65
p1038
aV1.47
p1039
aV1.30
p1040
aV1.36
p1041
aV2.34
p1042
aV1.81
p1043
aV1.76
p1044
aV1.72
p1045
aV2.05
p1046
aV2.29
p1047
aV2.20
p1048
aV2.10
p1049
aV1.87
p1050
aV1.73
p1051
aV1.51
p1052
aV1.48
p1053
aV2.21
p1054
aV1.88
p1055
aV1.90
p1056
aV1.79
p1057
aV1.98
p1058
aV2.16
p1059
aV2.05
p1060
aV2.03
p1061
aV1.93
p1062
aV1.76
p1063
aV1.66
p1064
aV1.58
p1065
aV2.20
p1066
aV1.92
p1067
aV1.72
p1068
aV1.80
p1069
aV1.89
p1070
aV2.08
p1071
aV1.90
p1072
aV1.87
p1073
aV1.77
p1074
aV1.46
p1075
aV1.39
p1076
aV1.32
p1077
aV1.69
p1078
aV1.47
p1079
aV1.30
p1080
aV1.64
p1081
aV1.74
p1082
aV1.93
p1083
aV1.59
p1084
aV1.56
p1085
aV1.48
p1086
aV1.17
p1087
aV1.11
p1088
aV1.03
p1089
aV1.19
p1090
aV1.03
p1091
aV1.13
p1092
aV1.35
p1093
aV1.44
p1094
aV1.62
p1095
aV1.30
p1096
aV1.27
p1097
aV1.21
p1098
aV0.87
p1099
aV0.81
p1100
aV0.75
p1101
aV0.74
p1102
aV0.62
p1103
aV0.74
p1104
aV1.07
p1105
aV1.16
p1106
aV1.33
p1107
aVjanuary
p1108
aVfebruary
p1109
aVmarch
p1110
aVapril
p1111
aVmay
p1112
aVjune
p1113
aVjuly
p1114
aVaugust
p1115
aVseptember
p1116
aVoctober
p1117
aVnovember
p1118
aVdecember
p1119
atp1120
ba(lp1121
g17
(g18
(dp1122
g20
g21
(g22
(I0
tp1123
g24
tp1124
Rp1125
(I1
(L25L
tp1126
g31
I00
(lp1127
I1
aI2
aI3
aI4
aI5
aI6
aI7
aI8
aI9
aI10
aI11
aI12
aI13
aI14
aI15
aI16
aI17
aI18
aI19
aI20
aI21
aI22
aI23
aI24
ag103
atp1128
bsg38
Nstp1129
Rp1130
a(dp1131
g76
(dp1132
g78
g795
sg79
(lp1133
(dp1134
g82
g83
(I0
I25
L1L
tp1135
Rp1136
sg86
g817
sasstp1137
bsbssS'doc'
p1138
(lp1139
(dp1140
S'type'
p1141
S'value'
p1142
sg38
S'OPEX_saving'
p1143
sS'id'
p1144
S'Saving (%)'
p1145
sa(dp1146
g1141
S'table'
p1147
sg38
g1
sg1144
S'1.1.2.1 Renewables (PV and Solar Thermal)'
p1148
sa(dp1149
g1141
g1147
sg38
S'energy_storage_new_capacity'
p1150
sg1144
S'++++++ 1.2 Energy Storage'
p1151
sa(dp1152
g1141
S'timeserie'
p1153
sg38
S'hourly_pv_self_consumpt'
p1154
sg1144
S'*** Hourly PV output for self consumption'
p1155
sa(dp1156
g1141
g1153
sg38
S'hourly_pv_export'
p1157
sg1144
S'*** Hourly PV output for export '
p1158
sa(dp1159
g1141
g1153
sg38
S'elec_stored_stationnary_batteries'
p1160
sg1144
S'*** Electricity stored in Stationary Batteries (kWh)'
p1161
sa(dp1162
g1141
g1153
sg38
S'elec_for_stationnary_battery_charging_before_eff'
p1163
sg1144
S'Electricity for Stationary Battery charging (before charging efficiency) (kW)'
p1164
sa(dp1165
g1141
g1153
sg38
S'elec_provided_by_stationnary_battery_charging_after_eff'
p1166
sg1144
S'*** Electricity Provided by the Stationary Battery (after discharging efficiency) (kW)'
p1167
sa(dp1168
g1141
g1153
sg38
g88
sg1144
S'*** Hourly purchase from electric utility (kW)'
p1169
sasg1160
I00
sg1166
I00
sg1143
F5.0
sg1150
g2
(g3
g4
Ntp1170
Rp1171
(dp1172
g8
g9
sg10
g11
sg12
g2
(g13
g4
Ntp1173
Rp1174
((lp1175
g17
(g18
(dp1176
g20
g21
(g22
(I0
tp1177
g24
tp1178
Rp1179
(I1
(L1L
tp1180
g31
I00
(lp1181
VTechnology
p1182
atp1183
bsg38
Nstp1184
Rp1185
ag17
(g41
(dp1186
g20
g21
(g22
(I0
tp1187
g24
tp1188
Rp1189
(I1
(L1L
tp1190
g49
I00
S'\x00\x00\x00\x00\x00\x00\x00\x00'
p1191
tp1192
bsg38
Nstp1193
Rp1194
a(lp1195
g21
(g22
(I0
tp1196
g24
tp1197
Rp1198
(I1
(L1L
L1L
tp1199
g31
I00
(lp1200
S''
p1201
atp1202
ba(lp1203
g17
(g18
(dp1204
g20
g21
(g22
(I0
tp1205
g24
tp1206
Rp1207
(I1
(L1L
tp1208
g31
I00
(lp1209
g1182
atp1210
bsg38
Nstp1211
Rp1212
a(dp1213
g76
(dp1214
g78
g1175
sg79
(lp1215
(dp1216
g82
g83
(L0L
L1L
I1
tp1217
Rp1218
sg86
g1198
sasstp1219
bsbsg1163
I00
sg1154
I00
sg1157
I00
s.