(dp0
S'renewables_new_capacity'
p1
ccopy_reg
_reconstructor
p2
(cpandas.core.frame
DataFrame
p3
c__builtin__
object
p4
Ntp5
Rp6
(dp7
S'_metadata'
p8
(lp9
sS'_typ'
p10
S'dataframe'
p11
sS'_data'
p12
g2
(cpandas.core.internals
BlockManager
p13
g4
Ntp14
Rp15
((lp16
cpandas.indexes.base
_new_Index
p17
(cpandas.indexes.base
Index
p18
(dp19
S'data'
p20
cnumpy.core.multiarray
_reconstruct
p21
(cnumpy
ndarray
p22
(I0
tp23
S'b'
p24
tp25
Rp26
(I1
(L7L
tp27
cnumpy
dtype
p28
(S'O8'
p29
I0
I1
tp30
Rp31
(I3
S'|'
p32
NNNI-1
I-1
I63
tp33
bI00
(lp34
VAge
p35
aVExisting Capacity (kW)
p36
aVLifetime
p37
aVNew Capacity (kW)
p38
aVSize of PV/Solar-Thermal (m^2)
p39
aVTechnology
p40
aVTotal Capacity (kW)
p41
atp42
bsS'name'
p43
Nstp44
Rp45
ag17
(cpandas.indexes.numeric
Int64Index
p46
(dp47
g20
g21
(g22
(I0
tp48
g24
tp49
Rp50
(I1
(L1L
tp51
g28
(S'i8'
p52
I0
I1
tp53
Rp54
(I3
S'<'
p55
NNNI-1
I-1
I0
tp56
bI00
S'\x00\x00\x00\x00\x00\x00\x00\x00'
p57
tp58
bsg43
Nstp59
Rp60
a(lp61
g21
(g22
(I0
tp62
g24
tp63
Rp64
(I1
(L7L
L1L
tp65
g31
I00
(lp66
V""
p67
aV0
p68
aV30
p69
aV101
p70
aV672
p71
aV"Photovoltaic (kW)  peak power under test conditions"
p72
aV101
p73
atp74
ba(lp75
g17
(g18
(dp76
g20
g21
(g22
(I0
tp77
g24
tp78
Rp79
(I1
(L7L
tp80
g31
I00
(lp81
g35
ag36
ag37
ag38
ag39
ag40
ag41
atp82
bsg43
Nstp83
Rp84
a(dp85
S'0.14.1'
p86
(dp87
S'axes'
p88
g16
sS'blocks'
p89
(lp90
(dp91
S'mgr_locs'
p92
c__builtin__
slice
p93
(I0
I7
L1L
tp94
Rp95
sS'values'
p96
g64
sasstp97
bsbsS'purchase_from_utility'
p98
(dp99
S'week'
p100
g2
(g3
g4
Ntp101
Rp102
(dp103
g8
g9
sg10
g11
sg12
g2
(g13
g4
Ntp104
Rp105
((lp106
g17
(g18
(dp107
g20
g21
(g22
(I0
tp108
g24
tp109
Rp110
(I1
(L25L
tp111
g31
I00
(lp112
I1
aI2
aI3
aI4
aI5
aI6
aI7
aI8
aI9
aI10
aI11
aI12
aI13
aI14
aI15
aI16
aI17
aI18
aI19
aI20
aI21
aI22
aI23
aI24
aS'month'
p113
atp114
bsg43
Nstp115
Rp116
ag17
(g46
(dp117
g20
g21
(g22
(I0
tp118
g24
tp119
Rp120
(I1
(L12L
tp121
g54
I00
S'\x00\x00\x00\x00\x00\x00\x00\x00\x01\x00\x00\x00\x00\x00\x00\x00\x02\x00\x00\x00\x00\x00\x00\x00\x03\x00\x00\x00\x00\x00\x00\x00\x04\x00\x00\x00\x00\x00\x00\x00\x05\x00\x00\x00\x00\x00\x00\x00\x06\x00\x00\x00\x00\x00\x00\x00\x07\x00\x00\x00\x00\x00\x00\x00\x08\x00\x00\x00\x00\x00\x00\x00\t\x00\x00\x00\x00\x00\x00\x00\n\x00\x00\x00\x00\x00\x00\x00\x0b\x00\x00\x00\x00\x00\x00\x00'
p122
tp123
bsg43
Nstp124
Rp125
a(lp126
g21
(g22
(I0
tp127
g24
tp128
Rp129
(I1
(L25L
L12L
tp130
g31
I00
(lp131
V14.35
p132
aV35.83
p133
aV32.18
p134
aV0.00
p135
aV0.00
p136
aV14.32
p137
aV35.85
p138
aV35.94
p139
aV35.85
p140
aV0.00
p141
aV35.89
p142
aV35.87
p143
aV14.36
p144
aV8.04
p145
aV0.00
p146
aV26.63
p147
aV14.37
p148
aV0.00
p149
aV14.28
p150
aV14.37
p151
aV0.00
p152
aV0.00
p153
aV21.64
p154
aV0.00
p155
aV9.93
p156
aV0.00
p157
aV14.36
p158
aV14.26
p159
aV28.97
p160
aV14.32
p161
aV0.00
p162
aV28.49
p163
aV14.28
p164
aV34.37
p165
aV0.00
p166
aV14.34
p167
aV35.99
p168
aV14.32
p169
aV14.38
p170
aV12.19
p171
aV14.37
p172
aV0.00
p173
aV0.00
p174
aV0.00
p175
aV14.28
p176
aV0.00
p177
aV0.00
p178
aV14.37
p179
aV0.00
p180
aV35.94
p181
aV35.97
p182
aV14.26
p183
aV0.00
p184
aV8.86
p185
aV16.43
p186
aV0.00
p187
aV0.00
p188
aV8.93
p189
aV21.56
p190
aV14.45
p191
aV14.50
p192
aV14.43
p193
aV18.59
p194
aV14.21
p195
aV7.58
p196
aV15.70
p197
aV10.15
p198
aV12.61
p199
aV21.71
p200
aV21.55
p201
aV0.00
p202
aV0.00
p203
aV42.47
p204
aV2.99
p205
aV0.09
p206
aV0.00
p207
aV3.76
p208
aV0.00
p209
aV0.00
p210
aV5.71
p211
aV0.00
p212
aV15.66
p213
aV19.58
p214
aV27.28
p215
aV20.50
p216
aV6.23
p217
aV0.00
p218
aV0.00
p219
aV0.00
p220
aV0.00
p221
aV0.00
p222
aV0.00
p223
aV0.00
p224
aV0.00
p225
aV0.00
p226
aV18.40
p227
aV0.00
p228
aV0.00
p229
aV0.00
p230
aV0.00
p231
aV0.00
p232
aV0.00
p233
aV0.00
p234
aV0.00
p235
aV0.00
p236
aV0.00
p237
aV0.00
p238
aV0.00
p239
aV1.51
p240
aV0.00
p241
aV0.00
p242
aV0.00
p243
aV0.00
p244
aV0.00
p245
aV0.00
p246
aV0.00
p247
aV0.00
p248
aV0.00
p249
aV0.00
p250
aV0.00
p251
aV0.00
p252
aV0.00
p253
aV0.00
p254
aV0.00
p255
aV0.00
p256
aV0.00
p257
aV0.00
p258
aV0.00
p259
aV0.00
p260
aV0.00
p261
aV0.00
p262
aV0.00
p263
aV0.00
p264
aV0.00
p265
aV0.00
p266
aV0.00
p267
aV0.00
p268
aV0.00
p269
aV0.00
p270
aV0.00
p271
aV0.00
p272
aV0.00
p273
aV0.00
p274
aV0.00
p275
aV0.00
p276
aV0.00
p277
aV0.00
p278
aV0.00
p279
aV0.00
p280
aV0.00
p281
aV0.00
p282
aV0.00
p283
aV0.00
p284
aV0.00
p285
aV0.00
p286
aV0.55
p287
aV0.00
p288
aV0.00
p289
aV0.00
p290
aV0.00
p291
aV0.00
p292
aV0.00
p293
aV0.00
p294
aV0.00
p295
aV0.00
p296
aV0.00
p297
aV0.00
p298
aV0.00
p299
aV0.00
p300
aV0.00
p301
aV0.00
p302
aV0.00
p303
aV0.00
p304
aV0.00
p305
aV0.00
p306
aV0.00
p307
aV0.00
p308
aV0.00
p309
aV0.00
p310
aV0.00
p311
aV0.00
p312
aV0.00
p313
aV0.00
p314
aV0.00
p315
aV0.00
p316
aV7.47
p317
aV0.00
p318
aV5.53
p319
aV0.00
p320
aV0.00
p321
aV2.61
p322
aV4.69
p323
aV42.47
p324
aV13.02
p325
aV14.32
p326
aV13.48
p327
aV11.32
p328
aV6.79
p329
aV13.67
p330
aV27.98
p331
aV14.13
p332
aV22.48
p333
aV42.47
p334
aV42.94
p335
aV39.57
p336
aV39.36
p337
aV21.11
p338
aV17.62
p339
aV3.40
p340
aV26.19
p341
aV32.13
p342
aV14.70
p343
aV16.59
p344
aV34.37
p345
aV42.47
p346
aV42.94
p347
aV42.47
p348
aV39.36
p349
aV25.44
p350
aV19.20
p351
aV28.97
p352
aV12.33
p353
aV49.06
p354
aV26.13
p355
aV38.09
p356
aV34.37
p357
aV42.47
p358
aV42.94
p359
aV42.47
p360
aV25.49
p361
aV36.73
p362
aV26.63
p363
aV28.97
p364
aV31.85
p365
aV24.54
p366
aV45.18
p367
aV38.09
p368
aV34.37
p369
aV34.00
p370
aV27.40
p371
aV39.92
p372
aV39.36
p373
aV36.73
p374
aV21.71
p375
aV25.11
p376
aV22.02
p377
aV21.62
p378
aV21.79
p379
aV21.88
p380
aV21.77
p381
aV17.89
p382
aV42.94
p383
aV4.29
p384
aV15.97
p385
aV16.73
p386
aV8.49
p387
aV14.37
p388
aV14.32
p389
aV35.85
p390
aV14.37
p391
aV14.30
p392
aV14.34
p393
aV37.52
p394
aV35.97
p395
aV35.91
p396
aV35.83
p397
aV14.35
p398
aV26.63
p399
aV28.97
p400
aV33.06
p401
aV24.34
p402
aV14.37
p403
aV14.30
p404
aV34.37
p405
aV0.00
p406
aV0.00
p407
aV0.00
p408
aV0.00
p409
aV0.00
p410
aV14.26
p411
aV14.37
p412
aV31.18
p413
aV0.00
p414
aV14.37
p415
aV35.85
p416
aV34.37
p417
aV35.89
p418
aV35.86
p419
aVjanuary
p420
aVfebruary
p421
aVmarch
p422
aVapril
p423
aVmay
p424
aVjune
p425
aVjuly
p426
aVaugust
p427
aVseptember
p428
aVoctober
p429
aVnovember
p430
aVdecember
p431
atp432
ba(lp433
g17
(g18
(dp434
g20
g21
(g22
(I0
tp435
g24
tp436
Rp437
(I1
(L25L
tp438
g31
I00
(lp439
I1
aI2
aI3
aI4
aI5
aI6
aI7
aI8
aI9
aI10
aI11
aI12
aI13
aI14
aI15
aI16
aI17
aI18
aI19
aI20
aI21
aI22
aI23
aI24
ag113
atp440
bsg43
Nstp441
Rp442
a(dp443
g86
(dp444
g88
g106
sg89
(lp445
(dp446
g92
g93
(I0
I25
L1L
tp447
Rp448
sg96
g129
sasstp449
bsbsS'weekend'
p450
g2
(g3
g4
Ntp451
Rp452
(dp453
g8
g9
sg10
g11
sg12
g2
(g13
g4
Ntp454
Rp455
((lp456
g17
(g18
(dp457
g20
g21
(g22
(I0
tp458
g24
tp459
Rp460
(I1
(L25L
tp461
g31
I00
(lp462
I1
aI2
aI3
aI4
aI5
aI6
aI7
aI8
aI9
aI10
aI11
aI12
aI13
aI14
aI15
aI16
aI17
aI18
aI19
aI20
aI21
aI22
aI23
aI24
ag113
atp463
bsg43
Nstp464
Rp465
ag17
(g46
(dp466
g20
g21
(g22
(I0
tp467
g24
tp468
Rp469
(I1
(L12L
tp470
g54
I00
S'\x00\x00\x00\x00\x00\x00\x00\x00\x01\x00\x00\x00\x00\x00\x00\x00\x02\x00\x00\x00\x00\x00\x00\x00\x03\x00\x00\x00\x00\x00\x00\x00\x04\x00\x00\x00\x00\x00\x00\x00\x05\x00\x00\x00\x00\x00\x00\x00\x06\x00\x00\x00\x00\x00\x00\x00\x07\x00\x00\x00\x00\x00\x00\x00\x08\x00\x00\x00\x00\x00\x00\x00\t\x00\x00\x00\x00\x00\x00\x00\n\x00\x00\x00\x00\x00\x00\x00\x0b\x00\x00\x00\x00\x00\x00\x00'
p471
tp472
bsg43
Nstp473
Rp474
a(lp475
g21
(g22
(I0
tp476
g24
tp477
Rp478
(I1
(L25L
L12L
tp479
g31
I00
(lp480
V0.00
p481
aV36.40
p482
aV14.88
p483
aV0.00
p484
aV28.97
p485
aV33.06
p486
aV14.88
p487
aV14.88
p488
aV14.81
p489
aV14.86
p490
aV14.90
p491
aV30.63
p492
aV36.45
p493
aV14.91
p494
aV0.00
p495
aV14.88
p496
aV0.00
p497
aV14.88
p498
aV14.93
p499
aV0.00
p500
aV14.81
p501
aV0.00
p502
aV14.98
p503
aV15.04
p504
aV14.92
p505
aV0.00
p506
aV33.36
p507
aV14.89
p508
aV14.83
p509
aV14.88
p510
aV14.88
p511
aV14.88
p512
aV0.00
p513
aV33.37
p514
aV14.93
p515
aV15.10
p516
aV0.00
p517
aV21.79
p518
aV0.00
p519
aV0.00
p520
aV14.83
p521
aV0.00
p522
aV29.08
p523
aV14.88
p524
aV14.81
p525
aV14.86
p526
aV14.98
p527
aV0.00
p528
aV15.00
p529
aV0.00
p530
aV28.53
p531
aV14.90
p532
aV15.57
p533
aV9.14
p534
aV0.00
p535
aV14.88
p536
aV14.87
p537
aV0.00
p538
aV15.06
p539
aV34.40
p540
aV15.06
p541
aV14.96
p542
aV17.52
p543
aV10.97
p544
aV0.00
p545
aV7.18
p546
aV7.16
p547
aV9.32
p548
aV13.91
p549
aV18.21
p550
aV15.04
p551
aV0.00
p552
aV18.31
p553
aV0.00
p554
aV0.00
p555
aV1.76
p556
aV0.00
p557
aV0.00
p558
aV0.00
p559
aV0.00
p560
aV0.85
p561
aV8.99
p562
aV17.06
p563
aV17.55
p564
aV6.72
p565
aV0.00
p566
aV0.00
p567
aV0.00
p568
aV0.00
p569
aV0.00
p570
aV0.00
p571
aV0.00
p572
aV0.00
p573
aV0.00
p574
aV0.00
p575
aV10.51
p576
aV0.00
p577
aV0.00
p578
aV0.00
p579
aV0.00
p580
aV0.00
p581
aV0.00
p582
aV0.00
p583
aV0.00
p584
aV0.00
p585
aV0.00
p586
aV0.00
p587
aV0.00
p588
aV0.00
p589
aV0.00
p590
aV0.00
p591
aV0.00
p592
aV0.00
p593
aV0.00
p594
aV0.00
p595
aV0.00
p596
aV0.00
p597
aV0.00
p598
aV0.00
p599
aV0.00
p600
aV0.00
p601
aV0.00
p602
aV0.00
p603
aV0.00
p604
aV0.00
p605
aV0.00
p606
aV0.00
p607
aV0.00
p608
aV0.00
p609
aV0.00
p610
aV0.00
p611
aV0.00
p612
aV0.00
p613
aV0.00
p614
aV0.00
p615
aV0.00
p616
aV0.00
p617
aV0.00
p618
aV0.00
p619
aV0.00
p620
aV0.00
p621
aV0.00
p622
aV0.00
p623
aV0.00
p624
aV0.00
p625
aV0.00
p626
aV0.00
p627
aV0.00
p628
aV0.00
p629
aV0.00
p630
aV0.00
p631
aV0.00
p632
aV0.00
p633
aV0.00
p634
aV0.00
p635
aV0.00
p636
aV0.00
p637
aV0.00
p638
aV0.00
p639
aV0.00
p640
aV0.00
p641
aV0.00
p642
aV0.00
p643
aV0.00
p644
aV0.00
p645
aV0.00
p646
aV0.00
p647
aV0.00
p648
aV0.00
p649
aV0.00
p650
aV0.00
p651
aV0.00
p652
aV0.00
p653
aV0.00
p654
aV0.00
p655
aV0.00
p656
aV0.00
p657
aV0.00
p658
aV0.00
p659
aV0.00
p660
aV0.00
p661
aV0.00
p662
aV0.00
p663
aV0.00
p664
aV0.00
p665
aV5.12
p666
aV17.26
p667
aV0.00
p668
aV4.89
p669
aV4.55
p670
aV0.04
p671
aV0.00
p672
aV21.19
p673
aV0.00
p674
aV7.10
p675
aV5.69
p676
aV6.74
p677
aV0.00
p678
aV10.98
p679
aV3.04
p680
aV0.00
p681
aV21.75
p682
aV25.85
p683
aV42.94
p684
aV42.47
p685
aV23.40
p686
aV25.53
p687
aV11.48
p688
aV11.28
p689
aV4.00
p690
aV26.93
p691
aV26.19
p692
aV8.74
p693
aV31.68
p694
aV42.47
p695
aV42.94
p696
aV42.47
p697
aV36.73
p698
aV20.40
p699
aV7.23
p700
aV15.95
p701
aV17.69
p702
aV42.77
p703
aV46.22
p704
aV24.76
p705
aV34.37
p706
aV34.85
p707
aV35.36
p708
aV12.05
p709
aV39.36
p710
aV29.67
p711
aV26.50
p712
aV24.30
p713
aV33.06
p714
aV13.48
p715
aV33.13
p716
aV24.31
p717
aV10.03
p718
aV31.38
p719
aV24.69
p720
aV24.08
p721
aV25.49
p722
aV36.73
p723
aV18.52
p724
aV0.08
p725
aV18.52
p726
aV1.04
p727
aV1.04
p728
aV17.23
p729
aV0.62
p730
aV29.10
p731
aV23.33
p732
aV39.66
p733
aV17.55
p734
aV15.79
p735
aV14.88
p736
aV0.00
p737
aV4.04
p738
aV14.88
p739
aV36.45
p740
aV36.38
p741
aV14.86
p742
aV18.52
p743
aV0.00
p744
aV0.00
p745
aV13.40
p746
aV4.11
p747
aV14.88
p748
aV10.08
p749
aV14.90
p750
aV14.95
p751
aV0.00
p752
aV14.81
p753
aV9.18
p754
aV0.00
p755
aV14.80
p756
aV36.44
p757
aV14.83
p758
aV0.00
p759
aV26.63
p760
aV14.83
p761
aV15.26
p762
aV14.88
p763
aV14.88
p764
aV2.16
p765
aV33.30
p766
aV14.90
p767
aV0.00
p768
aVjanuary
p769
aVfebruary
p770
aVmarch
p771
aVapril
p772
aVmay
p773
aVjune
p774
aVjuly
p775
aVaugust
p776
aVseptember
p777
aVoctober
p778
aVnovember
p779
aVdecember
p780
atp781
ba(lp782
g17
(g18
(dp783
g20
g21
(g22
(I0
tp784
g24
tp785
Rp786
(I1
(L25L
tp787
g31
I00
(lp788
I1
aI2
aI3
aI4
aI5
aI6
aI7
aI8
aI9
aI10
aI11
aI12
aI13
aI14
aI15
aI16
aI17
aI18
aI19
aI20
aI21
aI22
aI23
aI24
ag113
atp789
bsg43
Nstp790
Rp791
a(dp792
g86
(dp793
g88
g456
sg89
(lp794
(dp795
g92
g93
(I0
I25
L1L
tp796
Rp797
sg96
g478
sasstp798
bsbsS'peak'
p799
g2
(g3
g4
Ntp800
Rp801
(dp802
g8
g9
sg10
g11
sg12
g2
(g13
g4
Ntp803
Rp804
((lp805
g17
(g18
(dp806
g20
g21
(g22
(I0
tp807
g24
tp808
Rp809
(I1
(L25L
tp810
g31
I00
(lp811
I1
aI2
aI3
aI4
aI5
aI6
aI7
aI8
aI9
aI10
aI11
aI12
aI13
aI14
aI15
aI16
aI17
aI18
aI19
aI20
aI21
aI22
aI23
aI24
ag113
atp812
bsg43
Nstp813
Rp814
ag17
(g46
(dp815
g20
g21
(g22
(I0
tp816
g24
tp817
Rp818
(I1
(L12L
tp819
g54
I00
S'\x00\x00\x00\x00\x00\x00\x00\x00\x01\x00\x00\x00\x00\x00\x00\x00\x02\x00\x00\x00\x00\x00\x00\x00\x03\x00\x00\x00\x00\x00\x00\x00\x04\x00\x00\x00\x00\x00\x00\x00\x05\x00\x00\x00\x00\x00\x00\x00\x06\x00\x00\x00\x00\x00\x00\x00\x07\x00\x00\x00\x00\x00\x00\x00\x08\x00\x00\x00\x00\x00\x00\x00\t\x00\x00\x00\x00\x00\x00\x00\n\x00\x00\x00\x00\x00\x00\x00\x0b\x00\x00\x00\x00\x00\x00\x00'
p820
tp821
bsg43
Nstp822
Rp823
a(lp824
g21
(g22
(I0
tp825
g24
tp826
Rp827
(I1
(L25L
L12L
tp828
g31
I00
(lp829
V15.34
p830
aV36.73
p831
aV36.68
p832
aV15.11
p833
aV15.11
p834
aV15.11
p835
aV15.11
p836
aV15.11
p837
aV15.11
p838
aV15.11
p839
aV36.72
p840
aV37.19
p841
aV15.87
p842
aV0.00
p843
aV15.16
p844
aV15.11
p845
aV28.97
p846
aV15.95
p847
aV36.68
p848
aV15.11
p849
aV15.11
p850
aV0.00
p851
aV0.00
p852
aV15.77
p853
aV16.19
p854
aV13.16
p855
aV0.00
p856
aV26.63
p857
aV3.93
p858
aV0.00
p859
aV0.00
p860
aV0.00
p861
aV26.16
p862
aV15.18
p863
aV36.87
p864
aV15.98
p865
aV16.26
p866
aV15.49
p867
aV36.73
p868
aV15.14
p869
aV15.15
p870
aV22.63
p871
aV12.81
p872
aV15.11
p873
aV15.11
p874
aV15.30
p875
aV20.17
p876
aV16.00
p877
aV16.30
p878
aV15.84
p879
aV0.00
p880
aV26.63
p881
aV15.11
p882
aV9.36
p883
aV15.64
p884
aV33.35
p885
aV0.00
p886
aV15.48
p887
aV37.53
p888
aV37.72
p889
aV16.42
p890
aV15.94
p891
aV5.16
p892
aV2.56
p893
aV15.30
p894
aV11.15
p895
aV32.72
p896
aV0.00
p897
aV22.64
p898
aV22.66
p899
aV5.16
p900
aV16.15
p901
aV22.66
p902
aV22.64
p903
aV28.90
p904
aV0.00
p905
aV0.00
p906
aV0.00
p907
aV6.88
p908
aV7.28
p909
aV0.00
p910
aV23.96
p911
aV6.69
p912
aV5.16
p913
aV42.47
p914
aV9.50
p915
aV10.44
p916
aV3.66
p917
aV0.00
p918
aV0.00
p919
aV27.47
p920
aV0.00
p921
aV13.43
p922
aV0.00
p923
aV11.91
p924
aV22.19
p925
aV22.32
p926
aV0.00
p927
aV0.00
p928
aV0.00
p929
aV0.00
p930
aV0.00
p931
aV10.36
p932
aV0.00
p933
aV0.00
p934
aV2.10
p935
aV14.22
p936
aV0.00
p937
aV0.00
p938
aV0.00
p939
aV0.00
p940
aV0.00
p941
aV0.00
p942
aV0.00
p943
aV0.00
p944
aV0.00
p945
aV0.00
p946
aV0.00
p947
aV1.69
p948
aV9.56
p949
aV1.74
p950
aV0.00
p951
aV0.00
p952
aV0.00
p953
aV0.00
p954
aV0.00
p955
aV0.00
p956
aV0.00
p957
aV0.00
p958
aV0.00
p959
aV0.00
p960
aV0.00
p961
aV0.00
p962
aV0.00
p963
aV0.00
p964
aV0.00
p965
aV0.00
p966
aV0.00
p967
aV0.00
p968
aV0.00
p969
aV0.00
p970
aV0.00
p971
aV0.00
p972
aV0.00
p973
aV0.00
p974
aV0.00
p975
aV0.00
p976
aV0.00
p977
aV0.00
p978
aV0.00
p979
aV5.56
p980
aV0.00
p981
aV0.00
p982
aV0.00
p983
aV0.00
p984
aV2.72
p985
aV0.00
p986
aV0.00
p987
aV0.00
p988
aV0.00
p989
aV0.00
p990
aV0.00
p991
aV15.92
p992
aV0.00
p993
aV2.95
p994
aV0.00
p995
aV0.00
p996
aV0.00
p997
aV0.00
p998
aV0.00
p999
aV0.00
p1000
aV0.00
p1001
aV1.58
p1002
aV6.83
p1003
aV23.11
p1004
aV11.33
p1005
aV12.80
p1006
aV0.00
p1007
aV0.00
p1008
aV0.00
p1009
aV0.00
p1010
aV0.00
p1011
aV0.00
p1012
aV0.00
p1013
aV15.40
p1014
aV22.04
p1015
aV38.17
p1016
aV25.97
p1017
aV23.21
p1018
aV16.95
p1019
aV5.96
p1020
aV7.07
p1021
aV42.47
p1022
aV15.45
p1023
aV26.54
p1024
aV17.27
p1025
aV28.97
p1026
aV33.06
p1027
aV45.83
p1028
aV39.30
p1029
aV35.91
p1030
aV34.37
p1031
aV42.47
p1032
aV42.94
p1033
aV42.47
p1034
aV39.36
p1035
aV36.73
p1036
aV21.02
p1037
aV28.97
p1038
aV33.06
p1039
aV45.83
p1040
aV39.30
p1041
aV35.91
p1042
aV34.37
p1043
aV42.47
p1044
aV42.94
p1045
aV42.47
p1046
aV39.36
p1047
aV36.73
p1048
aV26.63
p1049
aV28.97
p1050
aV33.06
p1051
aV49.06
p1052
aV46.22
p1053
aV38.09
p1054
aV34.37
p1055
aV42.47
p1056
aV42.94
p1057
aV42.47
p1058
aV37.93
p1059
aV36.73
p1060
aV26.08
p1061
aV28.97
p1062
aV33.06
p1063
aV49.06
p1064
aV46.22
p1065
aV38.09
p1066
aV34.37
p1067
aV42.47
p1068
aV42.94
p1069
aV42.47
p1070
aV39.36
p1071
aV36.73
p1072
aV25.36
p1073
aV25.38
p1074
aV28.66
p1075
aV49.06
p1076
aV25.42
p1077
aV25.38
p1078
aV34.37
p1079
aV42.47
p1080
aV42.94
p1081
aV25.36
p1082
aV25.42
p1083
aV25.38
p1084
aV15.11
p1085
aV15.19
p1086
aV15.13
p1087
aV15.11
p1088
aV15.13
p1089
aV15.13
p1090
aV15.11
p1091
aV25.38
p1092
aV25.42
p1093
aV14.89
p1094
aV15.11
p1095
aV36.68
p1096
aV9.45
p1097
aV15.11
p1098
aV15.13
p1099
aV2.61
p1100
aV36.68
p1101
aV36.68
p1102
aV15.11
p1103
aV15.33
p1104
aV15.11
p1105
aV15.14
p1106
aV15.11
p1107
aV11.40
p1108
aV26.63
p1109
aV15.11
p1110
aV33.06
p1111
aV15.11
p1112
aV15.11
p1113
aV15.11
p1114
aV25.05
p1115
aV15.55
p1116
aV15.11
p1117
aVjanuary
p1118
aVfebruary
p1119
aVmarch
p1120
aVapril
p1121
aVmay
p1122
aVjune
p1123
aVjuly
p1124
aVaugust
p1125
aVseptember
p1126
aVoctober
p1127
aVnovember
p1128
aVdecember
p1129
atp1130
ba(lp1131
g17
(g18
(dp1132
g20
g21
(g22
(I0
tp1133
g24
tp1134
Rp1135
(I1
(L25L
tp1136
g31
I00
(lp1137
I1
aI2
aI3
aI4
aI5
aI6
aI7
aI8
aI9
aI10
aI11
aI12
aI13
aI14
aI15
aI16
aI17
aI18
aI19
aI20
aI21
aI22
aI23
aI24
ag113
atp1138
bsg43
Nstp1139
Rp1140
a(dp1141
g86
(dp1142
g88
g805
sg89
(lp1143
(dp1144
g92
g93
(I0
I25
L1L
tp1145
Rp1146
sg96
g827
sasstp1147
bsbssS'doc'
p1148
(lp1149
(dp1150
S'type'
p1151
S'value'
p1152
sg43
S'OPEX_saving'
p1153
sS'id'
p1154
S'Saving (%)'
p1155
sa(dp1156
g1151
S'table'
p1157
sg43
g1
sg1154
S'1.1.2.1 Renewables (PV and Solar Thermal)'
p1158
sa(dp1159
g1151
g1157
sg43
S'energy_storage_new_capacity'
p1160
sg1154
S'++++++ 1.2 Energy Storage'
p1161
sa(dp1162
g1151
S'timeserie'
p1163
sg43
S'hourly_pv_self_consumpt'
p1164
sg1154
S'*** Hourly PV output for self consumption'
p1165
sa(dp1166
g1151
g1163
sg43
S'hourly_pv_export'
p1167
sg1154
S'*** Hourly PV output for export '
p1168
sa(dp1169
g1151
g1163
sg43
S'elec_stored_stationnary_batteries'
p1170
sg1154
S'*** Electricity stored in Stationary Batteries (kWh)'
p1171
sa(dp1172
g1151
g1163
sg43
S'elec_for_stationnary_battery_charging_before_eff'
p1173
sg1154
S'Electricity for Stationary Battery charging (before charging efficiency) (kW)'
p1174
sa(dp1175
g1151
g1163
sg43
S'elec_provided_by_stationnary_battery_charging_after_eff'
p1176
sg1154
S'*** Electricity Provided by the Stationary Battery (after discharging efficiency) (kW)'
p1177
sa(dp1178
g1151
g1163
sg43
g98
sg1154
S'*** Hourly purchase from electric utility (kW)'
p1179
sasg1170
(dp1180
g100
g2
(g3
g4
Ntp1181
Rp1182
(dp1183
g8
g9
sg10
g11
sg12
g2
(g13
g4
Ntp1184
Rp1185
((lp1186
g17
(g18
(dp1187
g20
g21
(g22
(I0
tp1188
g24
tp1189
Rp1190
(I1
(L25L
tp1191
g31
I00
(lp1192
I1
aI2
aI3
aI4
aI5
aI6
aI7
aI8
aI9
aI10
aI11
aI12
aI13
aI14
aI15
aI16
aI17
aI18
aI19
aI20
aI21
aI22
aI23
aI24
ag113
atp1193
bsg43
Nstp1194
Rp1195
ag17
(g46
(dp1196
g20
g21
(g22
(I0
tp1197
g24
tp1198
Rp1199
(I1
(L12L
tp1200
g54
I00
S'\x00\x00\x00\x00\x00\x00\x00\x00\x01\x00\x00\x00\x00\x00\x00\x00\x02\x00\x00\x00\x00\x00\x00\x00\x03\x00\x00\x00\x00\x00\x00\x00\x04\x00\x00\x00\x00\x00\x00\x00\x05\x00\x00\x00\x00\x00\x00\x00\x06\x00\x00\x00\x00\x00\x00\x00\x07\x00\x00\x00\x00\x00\x00\x00\x08\x00\x00\x00\x00\x00\x00\x00\t\x00\x00\x00\x00\x00\x00\x00\n\x00\x00\x00\x00\x00\x00\x00\x0b\x00\x00\x00\x00\x00\x00\x00'
p1201
tp1202
bsg43
Nstp1203
Rp1204
a(lp1205
g21
(g22
(I0
tp1206
g24
tp1207
Rp1208
(I1
(L25L
L12L
tp1209
g31
I00
(lp1210
V24.42
p1211
aV42.31
p1212
aV35.44
p1213
aV19.41
p1214
aV19.43
p1215
aV51.35
p1216
aV51.29
p1217
aV38.81
p1218
aV58.18
p1219
aV39.42
p1220
aV58.18
p1221
aV58.18
p1222
aV24.39
p1223
aV35.35
p1224
aV19.45
p1225
aV30.52
p1226
aV19.41
p1227
aV35.39
p1228
aV51.24
p1229
aV38.77
p1230
aV42.26
p1231
aV23.45
p1232
aV64.71
p1233
aV42.22
p1234
aV19.41
p1235
aV19.43
p1236
aV19.43
p1237
aV30.49
p1238
aV32.53
p1239
aV35.36
p1240
aV35.32
p1241
aV51.44
p1242
aV42.22
p1243
aV41.45
p1244
aV48.72
p1245
aV42.18
p1246
aV38.81
p1247
aV19.41
p1248
aV19.41
p1249
aV28.16
p1250
aV32.50
p1251
aV19.41
p1252
aV19.41
p1253
aV35.42
p1254
aV42.17
p1255
aV25.47
p1256
aV32.71
p1257
aV42.14
p1258
aV22.70
p1259
aV38.81
p1260
aV38.81
p1261
aV28.13
p1262
aV20.01
p1263
aV19.41
p1264
aV24.36
p1265
aV19.41
p1266
aV26.26
p1267
aV19.41
p1268
aV39.12
p1269
aV42.10
p1270
aV22.67
p1271
aV38.77
p1272
aV38.77
p1273
aV28.10
p1274
aV19.43
p1275
aV24.03
p1276
aV24.34
p1277
aV19.41
p1278
aV29.51
p1279
aV19.41
p1280
aV22.23
p1281
aV25.93
p1282
aV41.50
p1283
aV19.43
p1284
aV22.45
p1285
aV19.70
p1286
aV19.41
p1287
aV19.41
p1288
aV19.41
p1289
aV19.41
p1290
aV19.41
p1291
aV19.41
p1292
aV22.20
p1293
aV31.15
p1294
aV41.46
p1295
aV19.41
p1296
aV19.41
p1297
aV19.41
p1298
aV19.41
p1299
aV19.41
p1300
aV22.35
p1301
aV19.41
p1302
aV19.41
p1303
aV19.41
p1304
aV19.41
p1305
aV31.12
p1306
aV43.54
p1307
aV19.41
p1308
aV19.41
p1309
aV19.41
p1310
aV19.41
p1311
aV19.41
p1312
aV19.41
p1313
aV19.41
p1314
aV19.41
p1315
aV19.41
p1316
aV24.04
p1317
aV32.36
p1318
aV39.22
p1319
aV19.41
p1320
aV19.41
p1321
aV19.43
p1322
aV19.43
p1323
aV38.38
p1324
aV34.02
p1325
aV38.81
p1326
aV19.41
p1327
aV19.41
p1328
aV19.41
p1329
aV27.41
p1330
aV39.60
p1331
aV19.41
p1332
aV25.96
p1333
aV19.41
p1334
aV19.41
p1335
aV57.75
p1336
aV51.51
p1337
aV58.18
p1338
aV38.81
p1339
aV38.81
p1340
aV19.41
p1341
aV33.19
p1342
aV44.01
p1343
aV19.41
p1344
aV45.34
p1345
aV38.81
p1346
aV25.96
p1347
aV64.71
p1348
aV64.71
p1349
aV64.71
p1350
aV58.18
p1351
aV58.18
p1352
aV37.86
p1353
aV41.25
p1354
aV47.63
p1355
aV19.41
p1356
aV64.71
p1357
aV46.76
p1358
aV45.34
p1359
aV64.65
p1360
aV64.71
p1361
aV64.65
p1362
aV58.13
p1363
aV58.13
p1364
aV37.82
p1365
aV41.21
p1366
aV56.44
p1367
aV38.81
p1368
aV64.65
p1369
aV64.71
p1370
aV64.71
p1371
aV64.58
p1372
aV64.71
p1373
aV64.71
p1374
aV64.71
p1375
aV58.07
p1376
aV52.17
p1377
aV50.61
p1378
aV61.61
p1379
aV57.99
p1380
aV64.71
p1381
aV64.71
p1382
aV64.71
p1383
aV64.71
p1384
aV63.69
p1385
aV64.71
p1386
aV64.71
p1387
aV64.71
p1388
aV64.71
p1389
aV64.71
p1390
aV64.71
p1391
aV64.71
p1392
aV64.71
p1393
aV64.71
p1394
aV62.98
p1395
aV64.65
p1396
aV45.98
p1397
aV58.40
p1398
aV54.88
p1399
aV54.17
p1400
aV64.65
p1401
aV64.65
p1402
aV64.06
p1403
aV64.65
p1404
aV64.71
p1405
aV64.65
p1406
aV54.87
p1407
aV45.17
p1408
aV26.52
p1409
aV58.34
p1410
aV45.24
p1411
aV44.52
p1412
aV59.44
p1413
aV54.09
p1414
aV44.58
p1415
aV51.58
p1416
aV51.01
p1417
aV64.58
p1418
aV35.40
p1419
aV45.12
p1420
aV26.49
p1421
aV38.87
p1422
aV25.78
p1423
aV35.75
p1424
aV47.13
p1425
aV38.31
p1426
aV41.63
p1427
aV45.51
p1428
aV31.55
p1429
aV45.11
p1430
aV30.52
p1431
aV25.67
p1432
aV38.87
p1433
aV19.41
p1434
aV21.04
p1435
aV25.64
p1436
aV46.25
p1437
aV36.29
p1438
aV40.52
p1439
aV26.05
p1440
aV27.14
p1441
aV30.70
p1442
aV19.41
p1443
aV19.45
p1444
aV19.41
p1445
aV19.49
p1446
aV19.43
p1447
aV19.45
p1448
aV38.87
p1449
aV19.41
p1450
aV40.48
p1451
aV25.81
p1452
aV35.47
p1453
aV30.67
p1454
aV22.38
p1455
aV19.43
p1456
aV19.41
p1457
aV19.47
p1458
aV19.41
p1459
aV19.43
p1460
aV19.41
p1461
aV22.66
p1462
aV21.02
p1463
aV19.41
p1464
aV35.43
p1465
aV24.22
p1466
aV22.36
p1467
aV19.41
p1468
aV38.81
p1469
aV19.45
p1470
aV19.41
p1471
aV19.41
p1472
aV35.36
p1473
aV35.32
p1474
aV40.42
p1475
aV38.81
p1476
aV35.40
p1477
aV35.33
p1478
aV35.47
p1479
aV36.26
p1480
aV47.82
p1481
aV19.43
p1482
aV19.41
p1483
aV37.42
p1484
aV19.41
p1485
aV19.41
p1486
aV24.44
p1487
aV22.92
p1488
aV19.41
p1489
aV35.30
p1490
aV35.44
p1491
aV51.41
p1492
aV31.90
p1493
aV19.41
p1494
aV38.81
p1495
aV55.41
p1496
aV38.81
p1497
aV38.81
p1498
aVjanuary
p1499
aVfebruary
p1500
aVmarch
p1501
aVapril
p1502
aVmay
p1503
aVjune
p1504
aVjuly
p1505
aVaugust
p1506
aVseptember
p1507
aVoctober
p1508
aVnovember
p1509
aVdecember
p1510
atp1511
ba(lp1512
g17
(g18
(dp1513
g20
g21
(g22
(I0
tp1514
g24
tp1515
Rp1516
(I1
(L25L
tp1517
g31
I00
(lp1518
I1
aI2
aI3
aI4
aI5
aI6
aI7
aI8
aI9
aI10
aI11
aI12
aI13
aI14
aI15
aI16
aI17
aI18
aI19
aI20
aI21
aI22
aI23
aI24
ag113
atp1519
bsg43
Nstp1520
Rp1521
a(dp1522
g86
(dp1523
g88
g1186
sg89
(lp1524
(dp1525
g92
g93
(I0
I25
L1L
tp1526
Rp1527
sg96
g1208
sasstp1528
bsbsg450
g2
(g3
g4
Ntp1529
Rp1530
(dp1531
g8
g9
sg10
g11
sg12
g2
(g13
g4
Ntp1532
Rp1533
((lp1534
g17
(g18
(dp1535
g20
g21
(g22
(I0
tp1536
g24
tp1537
Rp1538
(I1
(L25L
tp1539
g31
I00
(lp1540
I1
aI2
aI3
aI4
aI5
aI6
aI7
aI8
aI9
aI10
aI11
aI12
aI13
aI14
aI15
aI16
aI17
aI18
aI19
aI20
aI21
aI22
aI23
aI24
ag113
atp1541
bsg43
Nstp1542
Rp1543
ag17
(g46
(dp1544
g20
g21
(g22
(I0
tp1545
g24
tp1546
Rp1547
(I1
(L12L
tp1548
g54
I00
S'\x00\x00\x00\x00\x00\x00\x00\x00\x01\x00\x00\x00\x00\x00\x00\x00\x02\x00\x00\x00\x00\x00\x00\x00\x03\x00\x00\x00\x00\x00\x00\x00\x04\x00\x00\x00\x00\x00\x00\x00\x05\x00\x00\x00\x00\x00\x00\x00\x06\x00\x00\x00\x00\x00\x00\x00\x07\x00\x00\x00\x00\x00\x00\x00\x08\x00\x00\x00\x00\x00\x00\x00\t\x00\x00\x00\x00\x00\x00\x00\n\x00\x00\x00\x00\x00\x00\x00\x0b\x00\x00\x00\x00\x00\x00\x00'
p1549
tp1550
bsg43
Nstp1551
Rp1552
a(lp1553
g21
(g22
(I0
tp1554
g24
tp1555
Rp1556
(I1
(L25L
L12L
tp1557
g31
I00
(lp1558
V25.08
p1559
aV64.71
p1560
aV35.99
p1561
aV36.11
p1562
aV35.96
p1563
aV36.08
p1564
aV19.41
p1565
aV36.06
p1566
aV35.96
p1567
aV35.96
p1568
aV19.41
p1569
aV36.45
p1570
aV44.47
p1571
aV64.71
p1572
aV19.41
p1573
aV36.07
p1574
aV19.45
p1575
aV36.04
p1576
aV19.43
p1577
aV19.49
p1578
aV35.92
p1579
aV19.41
p1580
aV19.45
p1581
aV36.41
p1582
aV44.43
p1583
aV48.14
p1584
aV36.02
p1585
aV36.04
p1586
aV19.43
p1587
aV36.01
p1588
aV19.41
p1589
aV19.47
p1590
aV19.43
p1591
aV36.05
p1592
aV19.43
p1593
aV36.37
p1594
aV27.80
p1595
aV54.31
p1596
aV19.41
p1597
aV19.45
p1598
aV19.41
p1599
aV19.43
p1600
aV32.17
p1601
aV19.45
p1602
aV19.41
p1603
aV36.02
p1604
aV19.41
p1605
aV19.41
p1606
aV27.77
p1607
aV37.67
p1608
aV31.64
p1609
aV19.43
p1610
aV23.50
p1611
aV19.41
p1612
aV19.43
p1613
aV19.43
p1614
aV19.45
p1615
aV19.45
p1616
aV19.45
p1617
aV36.56
p1618
aV27.74
p1619
aV37.63
p1620
aV31.60
p1621
aV19.41
p1622
aV19.41
p1623
aV19.41
p1624
aV19.41
p1625
aV19.41
p1626
aV19.43
p1627
aV19.43
p1628
aV19.43
p1629
aV19.41
p1630
aV27.71
p1631
aV19.41
p1632
aV19.41
p1633
aV19.41
p1634
aV19.41
p1635
aV20.85
p1636
aV19.41
p1637
aV19.41
p1638
aV19.41
p1639
aV19.41
p1640
aV19.41
p1641
aV19.43
p1642
aV19.41
p1643
aV19.43
p1644
aV19.41
p1645
aV19.41
p1646
aV19.43
p1647
aV20.83
p1648
aV26.82
p1649
aV29.24
p1650
aV19.41
p1651
aV19.43
p1652
aV21.44
p1653
aV19.41
p1654
aV27.82
p1655
aV19.41
p1656
aV19.41
p1657
aV19.41
p1658
aV19.41
p1659
aV20.81
p1660
aV43.31
p1661
aV48.62
p1662
aV19.43
p1663
aV19.41
p1664
aV31.56
p1665
aV28.81
p1666
aV27.79
p1667
aV19.41
p1668
aV19.41
p1669
aV19.43
p1670
aV19.41
p1671
aV20.79
p1672
aV62.68
p1673
aV64.71
p1674
aV19.41
p1675
aV19.41
p1676
aV31.53
p1677
aV41.96
p1678
aV27.76
p1679
aV31.18
p1680
aV27.90
p1681
aV19.41
p1682
aV24.36
p1683
aV40.18
p1684
aV64.71
p1685
aV64.71
p1686
aV22.30
p1687
aV38.81
p1688
aV30.28
p1689
aV41.92
p1690
aV28.21
p1691
aV50.56
p1692
aV27.87
p1693
aV23.50
p1694
aV24.33
p1695
aV40.14
p1696
aV64.71
p1697
aV64.71
p1698
aV41.69
p1699
aV38.77
p1700
aV30.25
p1701
aV41.88
p1702
aV35.79
p1703
aV50.51
p1704
aV27.84
p1705
aV42.89
p1706
aV24.31
p1707
aV40.10
p1708
aV64.71
p1709
aV64.71
p1710
aV60.57
p1711
aV58.15
p1712
aV49.64
p1713
aV41.83
p1714
aV48.55
p1715
aV50.46
p1716
aV47.23
p1717
aV42.85
p1718
aV43.70
p1719
aV58.20
p1720
aV64.71
p1721
aV64.71
p1722
aV60.51
p1723
aV58.09
p1724
aV49.59
p1725
aV44.24
p1726
aV57.66
p1727
aV50.41
p1728
aV61.08
p1729
aV58.69
p1730
aV60.43
p1731
aV64.71
p1732
aV62.83
p1733
aV64.71
p1734
aV64.71
p1735
aV64.71
p1736
aV64.71
p1737
aV63.61
p1738
aV64.71
p1739
aV64.71
p1740
aV64.71
p1741
aV64.71
p1742
aV64.71
p1743
aV64.71
p1744
aV62.77
p1745
aV55.26
p1746
aV64.71
p1747
aV64.65
p1748
aV64.71
p1749
aV64.71
p1750
aV45.23
p1751
aV55.71
p1752
aV64.71
p1753
aV64.65
p1754
aV64.71
p1755
aV45.32
p1756
aV43.29
p1757
aV35.79
p1758
aV50.32
p1759
aV64.71
p1760
aV45.23
p1761
aV60.64
p1762
aV38.70
p1763
aV36.24
p1764
aV64.65
p1765
aV64.71
p1766
aV64.71
p1767
aV25.86
p1768
aV38.98
p1769
aV35.76
p1770
aV30.85
p1771
aV60.41
p1772
aV38.67
p1773
aV57.97
p1774
aV42.69
p1775
aV36.21
p1776
aV50.81
p1777
aV45.23
p1778
aV64.65
p1779
aV25.83
p1780
aV58.36
p1781
aV52.45
p1782
aV30.82
p1783
aV64.71
p1784
aV36.14
p1785
aV57.91
p1786
aV23.24
p1787
aV47.12
p1788
aV50.75
p1789
aV42.29
p1790
aV64.58
p1791
aV31.53
p1792
aV38.89
p1793
aV52.81
p1794
aV30.79
p1795
aV45.23
p1796
aV36.10
p1797
aV57.86
p1798
aV19.41
p1799
aV47.07
p1800
aV64.71
p1801
aV42.25
p1802
aV45.11
p1803
aV31.49
p1804
aV19.43
p1805
aV33.34
p1806
aV30.76
p1807
aV25.78
p1808
aV36.07
p1809
aV57.80
p1810
aV38.81
p1811
aV47.02
p1812
aV64.65
p1813
aV42.21
p1814
aV28.59
p1815
aV19.41
p1816
aV19.41
p1817
aV52.72
p1818
aV50.14
p1819
aV25.75
p1820
aV36.03
p1821
aV38.87
p1822
aV22.26
p1823
aV45.39
p1824
aV52.61
p1825
aV42.17
p1826
aV23.28
p1827
aV19.41
p1828
aV19.45
p1829
aV36.14
p1830
aV50.09
p1831
aV19.41
p1832
aV19.45
p1833
aV38.83
p1834
aV41.65
p1835
aV45.34
p1836
aV36.02
p1837
aV52.70
p1838
aV23.26
p1839
aV19.74
p1840
aV19.43
p1841
aV36.10
p1842
aV35.99
p1843
aV35.99
p1844
aV19.43
p1845
aV22.33
p1846
aVjanuary
p1847
aVfebruary
p1848
aVmarch
p1849
aVapril
p1850
aVmay
p1851
aVjune
p1852
aVjuly
p1853
aVaugust
p1854
aVseptember
p1855
aVoctober
p1856
aVnovember
p1857
aVdecember
p1858
atp1859
ba(lp1860
g17
(g18
(dp1861
g20
g21
(g22
(I0
tp1862
g24
tp1863
Rp1864
(I1
(L25L
tp1865
g31
I00
(lp1866
I1
aI2
aI3
aI4
aI5
aI6
aI7
aI8
aI9
aI10
aI11
aI12
aI13
aI14
aI15
aI16
aI17
aI18
aI19
aI20
aI21
aI22
aI23
aI24
ag113
atp1867
bsg43
Nstp1868
Rp1869
a(dp1870
g86
(dp1871
g88
g1534
sg89
(lp1872
(dp1873
g92
g93
(I0
I25
L1L
tp1874
Rp1875
sg96
g1556
sasstp1876
bsbsg799
g2
(g3
g4
Ntp1877
Rp1878
(dp1879
g8
g9
sg10
g11
sg12
g2
(g13
g4
Ntp1880
Rp1881
((lp1882
g17
(g18
(dp1883
g20
g21
(g22
(I0
tp1884
g24
tp1885
Rp1886
(I1
(L25L
tp1887
g31
I00
(lp1888
I1
aI2
aI3
aI4
aI5
aI6
aI7
aI8
aI9
aI10
aI11
aI12
aI13
aI14
aI15
aI16
aI17
aI18
aI19
aI20
aI21
aI22
aI23
aI24
ag113
atp1889
bsg43
Nstp1890
Rp1891
ag17
(g46
(dp1892
g20
g21
(g22
(I0
tp1893
g24
tp1894
Rp1895
(I1
(L12L
tp1896
g54
I00
S'\x00\x00\x00\x00\x00\x00\x00\x00\x01\x00\x00\x00\x00\x00\x00\x00\x02\x00\x00\x00\x00\x00\x00\x00\x03\x00\x00\x00\x00\x00\x00\x00\x04\x00\x00\x00\x00\x00\x00\x00\x05\x00\x00\x00\x00\x00\x00\x00\x06\x00\x00\x00\x00\x00\x00\x00\x07\x00\x00\x00\x00\x00\x00\x00\x08\x00\x00\x00\x00\x00\x00\x00\t\x00\x00\x00\x00\x00\x00\x00\n\x00\x00\x00\x00\x00\x00\x00\x0b\x00\x00\x00\x00\x00\x00\x00'
p1897
tp1898
bsg43
Nstp1899
Rp1900
a(lp1901
g21
(g22
(I0
tp1902
g24
tp1903
Rp1904
(I1
(L25L
L12L
tp1905
g31
I00
(lp1906
V19.51
p1907
aV38.81
p1908
aV54.04
p1909
aV29.73
p1910
aV19.41
p1911
aV35.52
p1912
aV19.41
p1913
aV38.73
p1914
aV38.73
p1915
aV36.33
p1916
aV38.81
p1917
aV38.81
p1918
aV19.49
p1919
aV21.86
p1920
aV53.98
p1921
aV29.70
p1922
aV31.87
p1923
aV36.24
p1924
aV38.81
p1925
aV38.69
p1926
aV38.69
p1927
aV19.47
p1928
aV21.91
p1929
aV38.77
p1930
aV19.47
p1931
aV19.45
p1932
aV37.00
p1933
aV40.02
p1934
aV19.41
p1935
aV19.41
p1936
aV21.98
p1937
aV21.87
p1938
aV48.60
p1939
aV19.45
p1940
aV41.30
p1941
aV38.73
p1942
aV19.45
p1943
aV19.43
p1944
aV56.22
p1945
aV39.98
p1946
aV19.43
p1947
aV26.17
p1948
aV19.41
p1949
aV21.85
p1950
aV48.55
p1951
aV19.43
p1952
aV45.34
p1953
aV38.69
p1954
aV19.43
p1955
aV19.41
p1956
aV38.87
p1957
aV50.26
p1958
aV19.41
p1959
aV26.14
p1960
aV19.87
p1961
aV38.24
p1962
aV31.72
p1963
aV19.41
p1964
aV64.71
p1965
aV58.07
p1966
aV19.41
p1967
aV19.45
p1968
aV19.41
p1969
aV32.19
p1970
aV25.38
p1971
aV26.11
p1972
aV39.27
p1973
aV19.43
p1974
aV31.69
p1975
aV19.41
p1976
aV45.23
p1977
aV58.01
p1978
aV19.41
p1979
aV19.43
p1980
aV27.08
p1981
aV21.75
p1982
aV19.41
p1983
aV19.41
p1984
aV39.23
p1985
aV19.41
p1986
aV19.41
p1987
aV22.57
p1988
aV25.78
p1989
aV38.54
p1990
aV36.57
p1991
aV19.41
p1992
aV27.05
p1993
aV21.73
p1994
aV19.41
p1995
aV21.53
p1996
aV58.60
p1997
aV19.68
p1998
aV28.44
p1999
aV19.41
p2000
aV19.45
p2001
aV38.50
p2002
aV55.95
p2003
aV25.26
p2004
aV19.41
p2005
aV19.41
p2006
aV19.41
p2007
aV19.41
p2008
aV58.54
p2009
aV19.66
p2010
aV30.23
p2011
aV19.41
p2012
aV19.43
p2013
aV35.93
p2014
aV45.09
p2015
aV25.24
p2016
aV19.41
p2017
aV19.41
p2018
aV32.93
p2019
aV34.35
p2020
aV58.79
p2021
aV30.96
p2022
aV42.22
p2023
aV19.41
p2024
aV19.41
p2025
aV35.89
p2026
aV45.05
p2027
aV40.11
p2028
aV19.85
p2029
aV19.41
p2030
aV52.31
p2031
aV50.75
p2032
aV62.68
p2033
aV44.86
p2034
aV53.12
p2035
aV19.41
p2036
aV26.92
p2037
aV39.59
p2038
aV47.47
p2039
aV40.07
p2040
aV39.24
p2041
aV38.81
p2042
aV64.71
p2043
aV64.71
p2044
aV64.71
p2045
aV56.74
p2046
aV63.23
p2047
aV32.93
p2048
aV41.66
p2049
aV45.57
p2050
aV49.11
p2051
aV40.03
p2052
aV58.62
p2053
aV58.18
p2054
aV64.65
p2055
aV64.71
p2056
aV64.65
p2057
aV63.93
p2058
aV64.71
p2059
aV51.88
p2060
aV53.33
p2061
aV45.37
p2062
aV55.93
p2063
aV40.08
p2064
aV58.56
p2065
aV58.13
p2066
aV64.71
p2067
aV64.71
p2068
aV64.71
p2069
aV64.71
p2070
aV64.65
p2071
aV64.71
p2072
aV64.71
p2073
aV52.69
p2074
aV59.12
p2075
aV57.08
p2076
aV64.71
p2077
aV64.71
p2078
aV64.71
p2079
aV64.65
p2080
aV64.65
p2081
aV64.65
p2082
aV64.58
p2083
aV64.71
p2084
aV64.71
p2085
aV64.71
p2086
aV60.24
p2087
aV64.71
p2088
aV57.90
p2089
aV64.65
p2090
aV64.71
p2091
aV64.71
p2092
aV64.71
p2093
aV64.71
p2094
aV64.71
p2095
aV64.71
p2096
aV64.71
p2097
aV64.71
p2098
aV53.08
p2099
aV64.65
p2100
aV64.71
p2101
aV64.71
p2102
aV61.61
p2103
aV56.91
p2104
aV54.78
p2105
aV61.48
p2106
aV63.22
p2107
aV60.41
p2108
aV52.67
p2109
aV50.57
p2110
aV33.62
p2111
aV45.17
p2112
aV52.37
p2113
aV64.71
p2114
aV57.04
p2115
aV49.30
p2116
aV53.56
p2117
aV52.59
p2118
aV47.97
p2119
aV44.94
p2120
aV33.20
p2121
aV31.63
p2122
aV27.33
p2123
aV35.42
p2124
aV39.69
p2125
aV45.23
p2126
aV38.64
p2127
aV37.03
p2128
aV38.87
p2129
aV33.13
p2130
aV28.51
p2131
aV29.65
p2132
aV26.92
p2133
aV25.87
p2134
aV21.05
p2135
aV24.09
p2136
aV27.02
p2137
aV25.78
p2138
aV19.41
p2139
aV19.41
p2140
aV19.41
p2141
aV19.41
p2142
aV19.41
p2143
aV19.41
p2144
aV20.64
p2145
aV20.11
p2146
aV19.83
p2147
aV19.41
p2148
aV19.41
p2149
aV25.75
p2150
aV19.41
p2151
aV19.41
p2152
aV33.41
p2153
aV19.41
p2154
aV19.41
p2155
aV27.50
p2156
aV19.41
p2157
aV19.41
p2158
aV19.81
p2159
aV19.45
p2160
aV19.41
p2161
aV25.72
p2162
aV19.47
p2163
aV19.41
p2164
aV33.38
p2165
aV19.41
p2166
aV19.41
p2167
aV27.47
p2168
aV19.41
p2169
aV19.45
p2170
aV19.55
p2171
aV19.43
p2172
aV38.81
p2173
aV19.41
p2174
aV19.45
p2175
aV19.41
p2176
aV19.45
p2177
aV38.81
p2178
aV38.81
p2179
aV27.45
p2180
aV19.43
p2181
aV19.43
p2182
aV19.53
p2183
aV19.41
p2184
aV34.66
p2185
aV29.76
p2186
aV19.43
p2187
aV35.55
p2188
aV19.43
p2189
aV38.77
p2190
aV38.77
p2191
aV36.37
p2192
aV19.41
p2193
aV19.41
p2194
aVjanuary
p2195
aVfebruary
p2196
aVmarch
p2197
aVapril
p2198
aVmay
p2199
aVjune
p2200
aVjuly
p2201
aVaugust
p2202
aVseptember
p2203
aVoctober
p2204
aVnovember
p2205
aVdecember
p2206
atp2207
ba(lp2208
g17
(g18
(dp2209
g20
g21
(g22
(I0
tp2210
g24
tp2211
Rp2212
(I1
(L25L
tp2213
g31
I00
(lp2214
I1
aI2
aI3
aI4
aI5
aI6
aI7
aI8
aI9
aI10
aI11
aI12
aI13
aI14
aI15
aI16
aI17
aI18
aI19
aI20
aI21
aI22
aI23
aI24
ag113
atp2215
bsg43
Nstp2216
Rp2217
a(dp2218
g86
(dp2219
g88
g1882
sg89
(lp2220
(dp2221
g92
g93
(I0
I25
L1L
tp2222
Rp2223
sg96
g1904
sasstp2224
bsbssg1176
(dp2225
g100
g2
(g3
g4
Ntp2226
Rp2227
(dp2228
g8
g9
sg10
g11
sg12
g2
(g13
g4
Ntp2229
Rp2230
((lp2231
g17
(g18
(dp2232
g20
g21
(g22
(I0
tp2233
g24
tp2234
Rp2235
(I1
(L25L
tp2236
g31
I00
(lp2237
I1
aI2
aI3
aI4
aI5
aI6
aI7
aI8
aI9
aI10
aI11
aI12
aI13
aI14
aI15
aI16
aI17
aI18
aI19
aI20
aI21
aI22
aI23
aI24
ag113
atp2238
bsg43
Nstp2239
Rp2240
ag17
(g46
(dp2241
g20
g21
(g22
(I0
tp2242
g24
tp2243
Rp2244
(I1
(L12L
tp2245
g54
I00
S'\x00\x00\x00\x00\x00\x00\x00\x00\x01\x00\x00\x00\x00\x00\x00\x00\x02\x00\x00\x00\x00\x00\x00\x00\x03\x00\x00\x00\x00\x00\x00\x00\x04\x00\x00\x00\x00\x00\x00\x00\x05\x00\x00\x00\x00\x00\x00\x00\x06\x00\x00\x00\x00\x00\x00\x00\x07\x00\x00\x00\x00\x00\x00\x00\x08\x00\x00\x00\x00\x00\x00\x00\t\x00\x00\x00\x00\x00\x00\x00\n\x00\x00\x00\x00\x00\x00\x00\x0b\x00\x00\x00\x00\x00\x00\x00'
p2246
tp2247
bsg43
Nstp2248
Rp2249
a(lp2250
g21
(g22
(I0
tp2251
g24
tp2252
Rp2253
(I1
(L25L
L12L
tp2254
g31
I00
(lp2255
V0.00
p2256
aV0.00
p2257
aV0.00
p2258
aV14.26
p2259
aV14.37
p2260
aV0.00
p2261
aV0.00
p2262
aV0.00
p2263
aV0.00
p2264
aV14.34
p2265
aV0.00
p2266
aV0.00
p2267
aV0.00
p2268
aV6.23
p2269
aV14.36
p2270
aV0.00
p2271
aV0.00
p2272
aV14.32
p2273
aV0.00
p2274
aV0.00
p2275
aV14.28
p2276
aV14.34
p2277
aV0.00
p2278
aV14.31
p2279
aV4.46
p2280
aV14.29
p2281
aV0.00
p2282
aV0.00
p2283
aV0.00
p2284
aV0.00
p2285
aV14.28
p2286
aV0.00
p2287
aV0.00
p2288
aV0.00
p2289
aV14.34
p2290
aV0.00
p2291
aV0.00
p2292
aV0.00
p2293
aV0.00
p2294
aV2.08
p2295
aV0.00
p2296
aV14.32
p2297
aV14.28
p2298
aV14.37
p2299
aV0.00
p2300
aV14.35
p2301
aV14.36
p2302
aV0.00
p2303
aV14.47
p2304
aV0.00
p2305
aV0.00
p2306
aV0.00
p2307
aV11.21
p2308
aV0.00
p2309
aV0.00
p2310
aV14.37
p2311
aV14.28
p2312
aV5.43
p2313
aV0.00
p2314
aV0.00
p2315
aV0.00
p2316
aV0.00
p2317
aV0.00
p2318
aV0.00
p2319
aV0.50
p2320
aV0.00
p2321
aV0.00
p2322
aV0.00
p2323
aV0.00
p2324
aV0.00
p2325
aV15.17
p2326
aV14.51
p2327
aV0.00
p2328
aV17.37
p2329
aV14.65
p2330
aV7.53
p2331
aV0.00
p2332
aV4.14
p2333
aV4.41
p2334
aV0.00
p2335
aV9.06
p2336
aV0.00
p2337
aV0.00
p2338
aV0.00
p2339
aV0.00
p2340
aV0.00
p2341
aV2.72
p2342
aV0.24
p2343
aV0.00
p2344
aV0.00
p2345
aV0.00
p2346
aV0.00
p2347
aV0.00
p2348
aV0.00
p2349
aV2.49
p2350
aV0.00
p2351
aV0.00
p2352
aV0.00
p2353
aV0.00
p2354
aV0.00
p2355
aV0.00
p2356
aV0.00
p2357
aV2.62
p2358
aV0.00
p2359
aV0.00
p2360
aV0.00
p2361
aV0.00
p2362
aV0.00
p2363
aV3.85
p2364
aV0.00
p2365
aV0.00
p2366
aV0.00
p2367
aV0.00
p2368
aV0.00
p2369
aV0.00
p2370
aV0.00
p2371
aV0.00
p2372
aV0.00
p2373
aV4.14
p2374
aV4.43
p2375
aV0.00
p2376
aV0.00
p2377
aV0.00
p2378
aV0.00
p2379
aV0.00
p2380
aV0.00
p2381
aV0.00
p2382
aV0.00
p2383
aV0.00
p2384
aV0.00
p2385
aV0.00
p2386
aV0.00
p2387
aV0.00
p2388
aV0.00
p2389
aV0.00
p2390
aV0.00
p2391
aV0.00
p2392
aV0.00
p2393
aV0.00
p2394
aV0.00
p2395
aV0.00
p2396
aV0.00
p2397
aV0.00
p2398
aV0.00
p2399
aV0.00
p2400
aV0.00
p2401
aV0.00
p2402
aV0.00
p2403
aV0.00
p2404
aV0.00
p2405
aV0.00
p2406
aV0.00
p2407
aV0.00
p2408
aV0.00
p2409
aV0.00
p2410
aV0.00
p2411
aV0.00
p2412
aV0.00
p2413
aV0.00
p2414
aV0.00
p2415
aV0.00
p2416
aV0.00
p2417
aV0.00
p2418
aV0.00
p2419
aV0.00
p2420
aV0.00
p2421
aV0.00
p2422
aV0.00
p2423
aV0.00
p2424
aV0.00
p2425
aV0.00
p2426
aV0.00
p2427
aV0.00
p2428
aV0.00
p2429
aV0.86
p2430
aV0.00
p2431
aV0.00
p2432
aV0.00
p2433
aV0.00
p2434
aV0.00
p2435
aV0.00
p2436
aV0.00
p2437
aV0.00
p2438
aV0.00
p2439
aV1.50
p2440
aV0.00
p2441
aV15.89
p2442
aV5.63
p2443
aV8.79
p2444
aV9.43
p2445
aV0.00
p2446
aV0.00
p2447
aV0.53
p2448
aV0.00
p2449
aV0.00
p2450
aV0.00
p2451
aV7.25
p2452
aV17.47
p2453
aV17.47
p2454
aV0.00
p2455
aV8.63
p2456
aV8.64
p2457
aV4.63
p2458
aV9.45
p2459
aV17.47
p2460
aV11.70
p2461
aV12.27
p2462
aV0.00
p2463
aV17.47
p2464
aV0.00
p2465
aV0.00
p2466
aV17.47
p2467
aV17.47
p2468
aV7.85
p2469
aV11.02
p2470
aV14.15
p2471
aV2.61
p2472
aV5.42
p2473
aV17.47
p2474
aV17.47
p2475
aV4.36
p2476
aV17.47
p2477
aV0.00
p2478
aV17.47
p2479
aV4.24
p2480
aV9.06
p2481
aV0.75
p2482
aV1.78
p2483
aV0.96
p2484
aV17.47
p2485
aV3.94
p2486
aV12.92
p2487
aV9.97
p2488
aV5.57
p2489
aV17.47
p2490
aV0.00
p2491
aV1.43
p2492
aV5.55
p2493
aV6.60
p2494
aV15.16
p2495
aV0.00
p2496
aV0.19
p2497
aV0.00
p2498
aV0.00
p2499
aV0.00
p2500
aV0.00
p2501
aV0.00
p2502
aV0.00
p2503
aV0.00
p2504
aV0.00
p2505
aV17.47
p2506
aV0.00
p2507
aV17.47
p2508
aV5.74
p2509
aV0.00
p2510
aV5.77
p2511
aV0.00
p2512
aV0.00
p2513
aV0.00
p2514
aV0.00
p2515
aV0.00
p2516
aV0.00
p2517
aV0.00
p2518
aV0.00
p2519
aV0.00
p2520
aV0.00
p2521
aV0.00
p2522
aV0.00
p2523
aV0.00
p2524
aV0.00
p2525
aV0.00
p2526
aV0.00
p2527
aV0.00
p2528
aV0.00
p2529
aV14.32
p2530
aV14.28
p2531
aV14.34
p2532
aV14.26
p2533
aV14.35
p2534
aV0.00
p2535
aV0.00
p2536
aV0.00
p2537
aV14.28
p2538
aV0.00
p2539
aV0.00
p2540
aV0.00
p2541
aV0.00
p2542
aV0.00
p2543
aVjanuary
p2544
aVfebruary
p2545
aVmarch
p2546
aVapril
p2547
aVmay
p2548
aVjune
p2549
aVjuly
p2550
aVaugust
p2551
aVseptember
p2552
aVoctober
p2553
aVnovember
p2554
aVdecember
p2555
atp2556
ba(lp2557
g17
(g18
(dp2558
g20
g21
(g22
(I0
tp2559
g24
tp2560
Rp2561
(I1
(L25L
tp2562
g31
I00
(lp2563
I1
aI2
aI3
aI4
aI5
aI6
aI7
aI8
aI9
aI10
aI11
aI12
aI13
aI14
aI15
aI16
aI17
aI18
aI19
aI20
aI21
aI22
aI23
aI24
ag113
atp2564
bsg43
Nstp2565
Rp2566
a(dp2567
g86
(dp2568
g88
g2231
sg89
(lp2569
(dp2570
g92
g93
(I0
I25
L1L
tp2571
Rp2572
sg96
g2253
sasstp2573
bsbsg450
g2
(g3
g4
Ntp2574
Rp2575
(dp2576
g8
g9
sg10
g11
sg12
g2
(g13
g4
Ntp2577
Rp2578
((lp2579
g17
(g18
(dp2580
g20
g21
(g22
(I0
tp2581
g24
tp2582
Rp2583
(I1
(L25L
tp2584
g31
I00
(lp2585
I1
aI2
aI3
aI4
aI5
aI6
aI7
aI8
aI9
aI10
aI11
aI12
aI13
aI14
aI15
aI16
aI17
aI18
aI19
aI20
aI21
aI22
aI23
aI24
ag113
atp2586
bsg43
Nstp2587
Rp2588
ag17
(g46
(dp2589
g20
g21
(g22
(I0
tp2590
g24
tp2591
Rp2592
(I1
(L12L
tp2593
g54
I00
S'\x00\x00\x00\x00\x00\x00\x00\x00\x01\x00\x00\x00\x00\x00\x00\x00\x02\x00\x00\x00\x00\x00\x00\x00\x03\x00\x00\x00\x00\x00\x00\x00\x04\x00\x00\x00\x00\x00\x00\x00\x05\x00\x00\x00\x00\x00\x00\x00\x06\x00\x00\x00\x00\x00\x00\x00\x07\x00\x00\x00\x00\x00\x00\x00\x08\x00\x00\x00\x00\x00\x00\x00\t\x00\x00\x00\x00\x00\x00\x00\n\x00\x00\x00\x00\x00\x00\x00\x0b\x00\x00\x00\x00\x00\x00\x00'
p2594
tp2595
bsg43
Nstp2596
Rp2597
a(lp2598
g21
(g22
(I0
tp2599
g24
tp2600
Rp2601
(I1
(L25L
L12L
tp2602
g31
I00
(lp2603
V14.88
p2604
aV0.00
p2605
aV0.00
p2606
aV14.88
p2607
aV0.00
p2608
aV0.00
p2609
aV0.00
p2610
aV0.00
p2611
aV0.00
p2612
aV0.00
p2613
aV0.00
p2614
aV0.00
p2615
aV0.00
p2616
aV0.00
p2617
aV14.88
p2618
aV0.00
p2619
aV14.83
p2620
aV0.00
p2621
aV0.00
p2622
aV14.88
p2623
aV0.00
p2624
aV14.86
p2625
aV0.00
p2626
aV0.00
p2627
aV0.00
p2628
aV14.86
p2629
aV0.00
p2630
aV0.00
p2631
aV0.00
p2632
aV0.00
p2633
aV0.00
p2634
aV0.00
p2635
aV14.81
p2636
aV0.00
p2637
aV0.00
p2638
aV0.00
p2639
aV14.93
p2640
aV0.00
p2641
aV14.91
p2642
aV14.89
p2643
aV0.00
p2644
aV14.88
p2645
aV0.00
p2646
aV0.00
p2647
aV0.00
p2648
aV0.00
p2649
aV0.00
p2650
aV15.23
p2651
aV0.00
p2652
aV14.93
p2653
aV0.00
p2654
aV0.00
p2655
aV0.00
p2656
aV0.00
p2657
aV11.44
p2658
aV0.00
p2659
aV0.00
p2660
aV14.88
p2661
aV0.00
p2662
aV0.00
p2663
aV0.00
p2664
aV0.00
p2665
aV0.00
p2666
aV0.00
p2667
aV3.66
p2668
aV0.00
p2669
aV0.00
p2670
aV0.00
p2671
aV0.00
p2672
aV0.00
p2673
aV0.00
p2674
aV15.40
p2675
aV0.00
p2676
aV16.36
p2677
aV10.94
p2678
aV0.00
p2679
aV0.00
p2680
aV0.00
p2681
aV0.00
p2682
aV0.00
p2683
aV0.00
p2684
aV0.00
p2685
aV0.00
p2686
aV0.00
p2687
aV7.44
p2688
aV0.00
p2689
aV0.00
p2690
aV0.00
p2691
aV0.00
p2692
aV0.00
p2693
aV0.00
p2694
aV0.00
p2695
aV0.00
p2696
aV0.00
p2697
aV0.00
p2698
aV0.00
p2699
aV0.00
p2700
aV0.00
p2701
aV0.00
p2702
aV0.00
p2703
aV0.00
p2704
aV0.00
p2705
aV0.00
p2706
aV0.00
p2707
aV0.00
p2708
aV0.00
p2709
aV0.00
p2710
aV0.00
p2711
aV0.00
p2712
aV0.00
p2713
aV0.00
p2714
aV0.00
p2715
aV0.00
p2716
aV0.00
p2717
aV0.00
p2718
aV0.00
p2719
aV0.00
p2720
aV0.00
p2721
aV0.00
p2722
aV0.00
p2723
aV0.00
p2724
aV0.00
p2725
aV0.00
p2726
aV0.00
p2727
aV0.00
p2728
aV0.00
p2729
aV0.00
p2730
aV0.00
p2731
aV0.00
p2732
aV0.00
p2733
aV1.09
p2734
aV0.00
p2735
aV0.00
p2736
aV0.00
p2737
aV0.00
p2738
aV0.00
p2739
aV0.00
p2740
aV0.00
p2741
aV0.00
p2742
aV0.00
p2743
aV0.00
p2744
aV0.00
p2745
aV0.00
p2746
aV0.00
p2747
aV0.00
p2748
aV0.00
p2749
aV0.00
p2750
aV0.00
p2751
aV0.00
p2752
aV0.00
p2753
aV0.00
p2754
aV0.00
p2755
aV0.00
p2756
aV0.00
p2757
aV0.00
p2758
aV0.00
p2759
aV0.00
p2760
aV0.00
p2761
aV0.00
p2762
aV0.00
p2763
aV0.00
p2764
aV0.00
p2765
aV0.00
p2766
aV0.00
p2767
aV0.00
p2768
aV0.00
p2769
aV0.00
p2770
aV0.00
p2771
aV0.00
p2772
aV0.00
p2773
aV0.00
p2774
aV0.00
p2775
aV0.00
p2776
aV0.00
p2777
aV1.64
p2778
aV0.00
p2779
aV0.00
p2780
aV0.00
p2781
aV0.00
p2782
aV0.00
p2783
aV0.00
p2784
aV0.00
p2785
aV0.00
p2786
aV0.00
p2787
aV0.00
p2788
aV0.00
p2789
aV0.00
p2790
aV8.45
p2791
aV0.00
p2792
aV0.00
p2793
aV0.00
p2794
aV0.00
p2795
aV17.47
p2796
aV8.04
p2797
aV0.00
p2798
aV0.00
p2799
aV0.00
p2800
aV17.40
p2801
aV17.47
p2802
aV17.47
p2803
aV12.90
p2804
aV0.00
p2805
aV17.47
p2806
aV3.61
p2807
aV5.84
p2808
aV17.47
p2809
aV0.00
p2810
aV0.00
p2811
aV0.00
p2812
aV17.47
p2813
aV3.84
p2814
aV0.00
p2815
aV17.47
p2816
aV3.81
p2817
aV5.87
p2818
aV2.34
p2819
aV0.00
p2820
aV0.00
p2821
aV12.40
p2822
aV17.47
p2823
aV0.00
p2824
aV0.00
p2825
aV0.00
p2826
aV0.00
p2827
aV0.00
p2828
aV0.00
p2829
aV2.24
p2830
aV0.00
p2831
aV17.47
p2832
aV0.00
p2833
aV0.00
p2834
aV2.61
p2835
aV0.00
p2836
aV0.00
p2837
aV17.47
p2838
aV0.00
p2839
aV0.00
p2840
aV17.47
p2841
aV0.00
p2842
aV0.00
p2843
aV3.42
p2844
aV0.00
p2845
aV0.00
p2846
aV0.00
p2847
aV17.47
p2848
aV0.00
p2849
aV17.47
p2850
aV17.47
p2851
aV0.00
p2852
aV17.47
p2853
aV0.00
p2854
aV0.00
p2855
aV0.00
p2856
aV0.00
p2857
aV0.00
p2858
aV0.00
p2859
aV14.83
p2860
aV10.84
p2861
aV0.00
p2862
aV0.00
p2863
aV0.00
p2864
aV0.00
p2865
aV0.00
p2866
aV16.98
p2867
aV14.86
p2868
aV1.43
p2869
aV10.78
p2870
aV0.00
p2871
aV4.75
p2872
aV0.00
p2873
aV0.00
p2874
aV14.88
p2875
aV0.00
p2876
aV5.68
p2877
aV14.89
p2878
aV0.00
p2879
aV0.00
p2880
aV0.00
p2881
aV14.88
p2882
aV0.00
p2883
aV0.00
p2884
aV0.00
p2885
aV0.00
p2886
aV0.00
p2887
aV12.64
p2888
aV0.00
p2889
aV0.00
p2890
aV14.82
p2891
aVjanuary
p2892
aVfebruary
p2893
aVmarch
p2894
aVapril
p2895
aVmay
p2896
aVjune
p2897
aVjuly
p2898
aVaugust
p2899
aVseptember
p2900
aVoctober
p2901
aVnovember
p2902
aVdecember
p2903
atp2904
ba(lp2905
g17
(g18
(dp2906
g20
g21
(g22
(I0
tp2907
g24
tp2908
Rp2909
(I1
(L25L
tp2910
g31
I00
(lp2911
I1
aI2
aI3
aI4
aI5
aI6
aI7
aI8
aI9
aI10
aI11
aI12
aI13
aI14
aI15
aI16
aI17
aI18
aI19
aI20
aI21
aI22
aI23
aI24
ag113
atp2912
bsg43
Nstp2913
Rp2914
a(dp2915
g86
(dp2916
g88
g2579
sg89
(lp2917
(dp2918
g92
g93
(I0
I25
L1L
tp2919
Rp2920
sg96
g2601
sasstp2921
bsbsg799
g2
(g3
g4
Ntp2922
Rp2923
(dp2924
g8
g9
sg10
g11
sg12
g2
(g13
g4
Ntp2925
Rp2926
((lp2927
g17
(g18
(dp2928
g20
g21
(g22
(I0
tp2929
g24
tp2930
Rp2931
(I1
(L25L
tp2932
g31
I00
(lp2933
I1
aI2
aI3
aI4
aI5
aI6
aI7
aI8
aI9
aI10
aI11
aI12
aI13
aI14
aI15
aI16
aI17
aI18
aI19
aI20
aI21
aI22
aI23
aI24
ag113
atp2934
bsg43
Nstp2935
Rp2936
ag17
(g46
(dp2937
g20
g21
(g22
(I0
tp2938
g24
tp2939
Rp2940
(I1
(L12L
tp2941
g54
I00
S'\x00\x00\x00\x00\x00\x00\x00\x00\x01\x00\x00\x00\x00\x00\x00\x00\x02\x00\x00\x00\x00\x00\x00\x00\x03\x00\x00\x00\x00\x00\x00\x00\x04\x00\x00\x00\x00\x00\x00\x00\x05\x00\x00\x00\x00\x00\x00\x00\x06\x00\x00\x00\x00\x00\x00\x00\x07\x00\x00\x00\x00\x00\x00\x00\x08\x00\x00\x00\x00\x00\x00\x00\t\x00\x00\x00\x00\x00\x00\x00\n\x00\x00\x00\x00\x00\x00\x00\x0b\x00\x00\x00\x00\x00\x00\x00'
p2942
tp2943
bsg43
Nstp2944
Rp2945
a(lp2946
g21
(g22
(I0
tp2947
g24
tp2948
Rp2949
(I1
(L25L
L12L
tp2950
g31
I00
(lp2951
V0.00
p2952
aV0.00
p2953
aV0.00
p2954
aV0.00
p2955
aV0.00
p2956
aV0.00
p2957
aV0.00
p2958
aV0.00
p2959
aV0.00
p2960
aV0.00
p2961
aV0.00
p2962
aV0.00
p2963
aV0.00
p2964
aV15.21
p2965
aV0.00
p2966
aV0.00
p2967
aV0.00
p2968
aV0.00
p2969
aV0.00
p2970
aV0.00
p2971
aV0.00
p2972
aV15.14
p2973
aV15.18
p2974
aV0.00
p2975
aV0.00
p2976
aV2.15
p2977
aV15.24
p2978
aV0.00
p2979
aV11.18
p2980
aV15.11
p2981
aV15.11
p2982
aV15.11
p2983
aV0.00
p2984
aV0.00
p2985
aV0.00
p2986
aV0.00
p2987
aV0.00
p2988
aV0.00
p2989
aV0.00
p2990
aV0.00
p2991
aV0.00
p2992
aV0.00
p2993
aV2.29
p2994
aV0.00
p2995
aV0.00
p2996
aV0.00
p2997
aV0.00
p2998
aV0.00
p2999
aV0.00
p3000
aV0.00
p3001
aV15.57
p3002
aV0.00
p3003
aV0.00
p3004
aV0.00
p3005
aV0.00
p3006
aV0.00
p3007
aV15.11
p3008
aV0.00
p3009
aV0.00
p3010
aV0.00
p3011
aV0.00
p3012
aV0.00
p3013
aV17.47
p3014
aV16.22
p3015
aV0.00
p3016
aV0.00
p3017
aV0.00
p3018
aV16.89
p3019
aV0.00
p3020
aV0.00
p3021
aV17.47
p3022
aV0.00
p3023
aV0.00
p3024
aV0.00
p3025
aV0.00
p3026
aV9.36
p3027
aV5.35
p3028
aV6.01
p3029
aV0.00
p3030
aV0.00
p3031
aV11.02
p3032
aV0.00
p3033
aV17.47
p3034
aV17.47
p3035
aV0.00
p3036
aV0.00
p3037
aV0.00
p3038
aV0.00
p3039
aV0.00
p3040
aV0.00
p3041
aV0.00
p3042
aV0.00
p3043
aV0.00
p3044
aV2.82
p3045
aV5.67
p3046
aV0.00
p3047
aV0.00
p3048
aV0.00
p3049
aV6.85
p3050
aV2.06
p3051
aV0.00
p3052
aV1.88
p3053
aV0.00
p3054
aV0.00
p3055
aV0.00
p3056
aV0.00
p3057
aV0.00
p3058
aV2.28
p3059
aV9.72
p3060
aV0.00
p3061
aV0.00
p3062
aV0.00
p3063
aV0.00
p3064
aV0.00
p3065
aV0.00
p3066
aV0.00
p3067
aV0.00
p3068
aV0.00
p3069
aV0.00
p3070
aV0.00
p3071
aV0.00
p3072
aV0.00
p3073
aV0.00
p3074
aV0.00
p3075
aV0.00
p3076
aV0.00
p3077
aV0.00
p3078
aV0.00
p3079
aV0.00
p3080
aV0.00
p3081
aV0.00
p3082
aV0.00
p3083
aV0.00
p3084
aV0.00
p3085
aV0.00
p3086
aV0.00
p3087
aV0.00
p3088
aV0.00
p3089
aV0.00
p3090
aV0.00
p3091
aV0.00
p3092
aV0.00
p3093
aV0.00
p3094
aV0.00
p3095
aV0.00
p3096
aV0.00
p3097
aV0.00
p3098
aV0.00
p3099
aV0.00
p3100
aV0.00
p3101
aV0.00
p3102
aV0.00
p3103
aV0.00
p3104
aV0.00
p3105
aV0.00
p3106
aV0.14
p3107
aV0.00
p3108
aV0.00
p3109
aV0.00
p3110
aV0.00
p3111
aV0.00
p3112
aV0.00
p3113
aV0.00
p3114
aV0.00
p3115
aV0.00
p3116
aV0.00
p3117
aV0.00
p3118
aV0.00
p3119
aV0.00
p3120
aV0.00
p3121
aV0.00
p3122
aV0.00
p3123
aV0.00
p3124
aV0.00
p3125
aV0.00
p3126
aV0.00
p3127
aV0.00
p3128
aV0.00
p3129
aV0.00
p3130
aV0.00
p3131
aV0.00
p3132
aV0.00
p3133
aV6.07
p3134
aV0.00
p3135
aV0.00
p3136
aV0.00
p3137
aV0.00
p3138
aV0.00
p3139
aV0.00
p3140
aV0.00
p3141
aV0.00
p3142
aV0.00
p3143
aV6.39
p3144
aV0.00
p3145
aV0.00
p3146
aV0.00
p3147
aV2.73
p3148
aV6.97
p3149
aV8.88
p3150
aV2.85
p3151
aV1.29
p3152
aV3.81
p3153
aV10.78
p3154
aV12.67
p3155
aV17.47
p3156
aV17.47
p3157
aV11.05
p3158
aV0.00
p3159
aV4.06
p3160
aV6.80
p3161
aV1.05
p3162
aV7.94
p3163
aV13.67
p3164
aV13.87
p3165
aV17.47
p3166
aV17.00
p3167
aV5.63
p3168
aV8.73
p3169
aV11.37
p3170
aV17.47
p3171
aV16.51
p3172
aV11.00
p3173
aV13.18
p3174
aV17.47
p3175
aV17.47
p3176
aV13.73
p3177
aV5.63
p3178
aV5.16
p3179
aV5.63
p3180
aV10.17
p3181
aV11.37
p3182
aV17.47
p3183
aV17.27
p3184
aV15.82
p3185
aV17.47
p3186
aV12.31
p3187
aV8.16
p3188
aV9.18
p3189
aV5.63
p3190
aV5.16
p3191
aV1.08
p3192
aV4.19
p3193
aV6.82
p3194
aV0.00
p3195
aV0.00
p3196
aV0.00
p3197
aV0.00
p3198
aV0.00
p3199
aV0.00
p3200
aV0.00
p3201
aV1.08
p3202
aV0.61
p3203
aV0.00
p3204
aV0.00
p3205
aV0.00
p3206
aV0.00
p3207
aV0.00
p3208
aV0.00
p3209
aV0.00
p3210
aV0.00
p3211
aV0.00
p3212
aV0.00
p3213
aV0.00
p3214
aV0.00
p3215
aV0.21
p3216
aV0.00
p3217
aV0.00
p3218
aV5.66
p3219
aV0.00
p3220
aV0.00
p3221
aV12.50
p3222
aV0.00
p3223
aV0.00
p3224
aV0.00
p3225
aV0.00
p3226
aV0.00
p3227
aV0.00
p3228
aV0.00
p3229
aV3.70
p3230
aV0.00
p3231
aV0.00
p3232
aV0.00
p3233
aV0.00
p3234
aV0.00
p3235
aV0.00
p3236
aV0.00
p3237
aV0.00
p3238
aV0.00
p3239
aVjanuary
p3240
aVfebruary
p3241
aVmarch
p3242
aVapril
p3243
aVmay
p3244
aVjune
p3245
aVjuly
p3246
aVaugust
p3247
aVseptember
p3248
aVoctober
p3249
aVnovember
p3250
aVdecember
p3251
atp3252
ba(lp3253
g17
(g18
(dp3254
g20
g21
(g22
(I0
tp3255
g24
tp3256
Rp3257
(I1
(L25L
tp3258
g31
I00
(lp3259
I1
aI2
aI3
aI4
aI5
aI6
aI7
aI8
aI9
aI10
aI11
aI12
aI13
aI14
aI15
aI16
aI17
aI18
aI19
aI20
aI21
aI22
aI23
aI24
ag113
atp3260
bsg43
Nstp3261
Rp3262
a(dp3263
g86
(dp3264
g88
g2927
sg89
(lp3265
(dp3266
g92
g93
(I0
I25
L1L
tp3267
Rp3268
sg96
g2949
sasstp3269
bsbssg1153
F47.0
sg1160
g2
(g3
g4
Ntp3270
Rp3271
(dp3272
g8
g9
sg10
g11
sg12
g2
(g13
g4
Ntp3273
Rp3274
((lp3275
g17
(g18
(dp3276
g20
g21
(g22
(I0
tp3277
g24
tp3278
Rp3279
(I1
(L6L
tp3280
g31
I00
(lp3281
VAge
p3282
aVExisting Capacity
p3283
aVLifetime
p3284
aVNew Capacity
p3285
aVTechnology
p3286
aVTotal Capacity
p3287
atp3288
bsg43
Nstp3289
Rp3290
ag17
(g46
(dp3291
g20
g21
(g22
(I0
tp3292
g24
tp3293
Rp3294
(I1
(L1L
tp3295
g54
I00
S'\x00\x00\x00\x00\x00\x00\x00\x00'
p3296
tp3297
bsg43
Nstp3298
Rp3299
a(lp3300
g21
(g22
(I0
tp3301
g24
tp3302
Rp3303
(I1
(L6L
L1L
tp3304
g31
I00
(lp3305
V""
p3306
ag68
aV5
p3307
aV65
p3308
aV"Stationary Battery Capacity (kWh)"
p3309
aV65
p3310
atp3311
ba(lp3312
g17
(g18
(dp3313
g20
g21
(g22
(I0
tp3314
g24
tp3315
Rp3316
(I1
(L6L
tp3317
g31
I00
(lp3318
g3282
ag3283
ag3284
ag3285
ag3286
ag3287
atp3319
bsg43
Nstp3320
Rp3321
a(dp3322
g86
(dp3323
g88
g3275
sg89
(lp3324
(dp3325
g92
g93
(I0
I6
L1L
tp3326
Rp3327
sg96
g3303
sasstp3328
bsbsg1173
(dp3329
g100
g2
(g3
g4
Ntp3330
Rp3331
(dp3332
g8
g9
sg10
g11
sg12
g2
(g13
g4
Ntp3333
Rp3334
((lp3335
g17
(g18
(dp3336
g20
g21
(g22
(I0
tp3337
g24
tp3338
Rp3339
(I1
(L25L
tp3340
g31
I00
(lp3341
I1
aI2
aI3
aI4
aI5
aI6
aI7
aI8
aI9
aI10
aI11
aI12
aI13
aI14
aI15
aI16
aI17
aI18
aI19
aI20
aI21
aI22
aI23
aI24
ag113
atp3342
bsg43
Nstp3343
Rp3344
ag17
(g46
(dp3345
g20
g21
(g22
(I0
tp3346
g24
tp3347
Rp3348
(I1
(L12L
tp3349
g54
I00
S'\x00\x00\x00\x00\x00\x00\x00\x00\x01\x00\x00\x00\x00\x00\x00\x00\x02\x00\x00\x00\x00\x00\x00\x00\x03\x00\x00\x00\x00\x00\x00\x00\x04\x00\x00\x00\x00\x00\x00\x00\x05\x00\x00\x00\x00\x00\x00\x00\x06\x00\x00\x00\x00\x00\x00\x00\x07\x00\x00\x00\x00\x00\x00\x00\x08\x00\x00\x00\x00\x00\x00\x00\t\x00\x00\x00\x00\x00\x00\x00\n\x00\x00\x00\x00\x00\x00\x00\x0b\x00\x00\x00\x00\x00\x00\x00'
p3350
tp3351
bsg43
Nstp3352
Rp3353
a(lp3354
g21
(g22
(I0
tp3355
g24
tp3356
Rp3357
(I1
(L25L
L12L
tp3358
g31
I00
(lp3359
V0.00
p3360
aV21.57
p3361
aV17.83
p3362
aV0.00
p3363
aV0.00
p3364
aV0.00
p3365
aV21.57
p3366
aV21.57
p3367
aV21.57
p3368
aV0.00
p3369
aV21.57
p3370
aV21.57
p3371
aV0.00
p3372
aV0.00
p3373
aV0.00
p3374
aV12.37
p3375
aV0.00
p3376
aV0.00
p3377
aV0.00
p3378
aV0.00
p3379
aV0.00
p3380
aV0.00
p3381
aV7.32
p3382
aV0.00
p3383
aV0.00
p3384
aV0.00
p3385
aV0.00
p3386
aV0.00
p3387
aV14.60
p3388
aV0.00
p3389
aV0.00
p3390
aV14.12
p3391
aV0.00
p3392
aV20.03
p3393
aV0.00
p3394
aV0.00
p3395
aV21.57
p3396
aV0.00
p3397
aV0.00
p3398
aV0.00
p3399
aV0.00
p3400
aV0.00
p3401
aV0.00
p3402
aV0.00
p3403
aV0.00
p3404
aV0.00
p3405
aV0.00
p3406
aV0.00
p3407
aV0.00
p3408
aV21.57
p3409
aV21.57
p3410
aV0.00
p3411
aV0.00
p3412
aV0.02
p3413
aV5.52
p3414
aV0.00
p3415
aV0.00
p3416
aV0.00
p3417
aV7.16
p3418
aV0.00
p3419
aV0.00
p3420
aV0.00
p3421
aV0.00
p3422
aV0.00
p3423
aV0.00
p3424
aV5.15
p3425
aV0.00
p3426
aV0.02
p3427
aV3.63
p3428
aV0.02
p3429
aV0.00
p3430
aV0.00
p3431
aV20.94
p3432
aV0.00
p3433
aV0.00
p3434
aV0.00
p3435
aV0.00
p3436
aV0.00
p3437
aV0.00
p3438
aV0.02
p3439
aV0.00
p3440
aV0.02
p3441
aV0.00
p3442
aV5.83
p3443
aV0.00
p3444
aV0.00
p3445
aV0.00
p3446
aV0.00
p3447
aV0.02
p3448
aV0.02
p3449
aV3.28
p3450
aV0.02
p3451
aV0.02
p3452
aV0.02
p3453
aV0.00
p3454
aV0.00
p3455
aV2.36
p3456
aV0.02
p3457
aV0.02
p3458
aV0.02
p3459
aV0.02
p3460
aV0.02
p3461
aV0.00
p3462
aV0.02
p3463
aV0.02
p3464
aV0.02
p3465
aV5.16
p3466
aV1.42
p3467
aV0.00
p3468
aV0.02
p3469
aV0.02
p3470
aV0.04
p3471
aV0.04
p3472
aV21.09
p3473
aV16.25
p3474
aV21.57
p3475
aV0.02
p3476
aV0.02
p3477
aV0.00
p3478
aV0.00
p3479
aV0.46
p3480
aV0.02
p3481
aV7.29
p3482
aV0.00
p3483
aV0.00
p3484
aV21.57
p3485
aV19.48
p3486
aV21.57
p3487
aV21.57
p3488
aV21.57
p3489
aV0.02
p3490
aV6.45
p3491
aV4.94
p3492
aV0.02
p3493
aV21.57
p3494
aV21.57
p3495
aV7.29
p3496
aV7.80
p3497
aV14.72
p3498
aV7.32
p3499
aV21.57
p3500
aV21.57
p3501
aV20.51
p3502
aV9.00
p3503
aV4.08
p3504
aV0.02
p3505
aV21.57
p3506
aV8.88
p3507
aV21.57
p3508
aV0.00
p3509
aV0.07
p3510
aV0.00
p3511
aV0.00
p3512
aV0.00
p3513
aV0.00
p3514
aV0.00
p3515
aV9.84
p3516
aV21.57
p3517
aV0.00
p3518
aV20.00
p3519
aV21.57
p3520
aV0.00
p3521
aV0.07
p3522
aV0.14
p3523
aV7.38
p3524
aV0.00
p3525
aV15.99
p3526
aV10.49
p3527
aV5.80
p3528
aV21.35
p3529
aV0.14
p3530
aV0.07
p3531
aV0.07
p3532
aV0.22
p3533
aV0.00
p3534
aV0.07
p3535
aV0.07
p3536
aV7.45
p3537
aV14.00
p3538
aV15.72
p3539
aV3.52
p3540
aV7.54
p3541
aV0.07
p3542
aV0.07
p3543
aV0.00
p3544
aV0.00
p3545
aV0.00
p3546
aV0.00
p3547
aV0.00
p3548
aV0.00
p3549
aV0.00
p3550
aV0.00
p3551
aV0.00
p3552
aV0.00
p3553
aV0.07
p3554
aV0.00
p3555
aV0.00
p3556
aV0.00
p3557
aV0.00
p3558
aV0.00
p3559
aV0.00
p3560
aV0.00
p3561
aV0.00
p3562
aV0.00
p3563
aV0.00
p3564
aV0.00
p3565
aV0.00
p3566
aV0.00
p3567
aV0.00
p3568
aV0.00
p3569
aV0.00
p3570
aV0.00
p3571
aV0.00
p3572
aV0.00
p3573
aV0.00
p3574
aV0.00
p3575
aV0.00
p3576
aV0.00
p3577
aV0.00
p3578
aV0.00
p3579
aV0.00
p3580
aV0.00
p3581
aV13.78
p3582
aV0.00
p3583
aV0.00
p3584
aV0.00
p3585
aV0.00
p3586
aV0.00
p3587
aV0.00
p3588
aV0.00
p3589
aV0.00
p3590
aV0.00
p3591
aV0.00
p3592
aV0.00
p3593
aV0.00
p3594
aV0.11
p3595
aV0.00
p3596
aV0.00
p3597
aV0.00
p3598
aV0.00
p3599
aV0.00
p3600
aV0.00
p3601
aV9.28
p3602
aV0.00
p3603
aV3.32
p3604
aV0.00
p3605
aV0.02
p3606
aV0.00
p3607
aV0.00
p3608
aV0.00
p3609
aV0.00
p3610
aV3.63
p3611
aV0.00
p3612
aV0.00
p3613
aV0.00
p3614
aV0.00
p3615
aV0.00
p3616
aV0.00
p3617
aV21.57
p3618
aV0.00
p3619
aV0.02
p3620
aV0.00
p3621
aV17.74
p3622
aV14.09
p3623
aV21.57
p3624
aV21.57
p3625
aV0.00
p3626
aV12.37
p3627
aV14.60
p3628
aV18.74
p3629
aV10.06
p3630
aV0.00
p3631
aV0.02
p3632
aV20.03
p3633
aV0.00
p3634
aV0.00
p3635
aV0.00
p3636
aV0.00
p3637
aV0.00
p3638
aV0.00
p3639
aV0.00
p3640
aV16.87
p3641
aV0.00
p3642
aV0.00
p3643
aV21.57
p3644
aV20.03
p3645
aV21.57
p3646
aV21.57
p3647
aVjanuary
p3648
aVfebruary
p3649
aVmarch
p3650
aVapril
p3651
aVmay
p3652
aVjune
p3653
aVjuly
p3654
aVaugust
p3655
aVseptember
p3656
aVoctober
p3657
aVnovember
p3658
aVdecember
p3659
atp3660
ba(lp3661
g17
(g18
(dp3662
g20
g21
(g22
(I0
tp3663
g24
tp3664
Rp3665
(I1
(L25L
tp3666
g31
I00
(lp3667
I1
aI2
aI3
aI4
aI5
aI6
aI7
aI8
aI9
aI10
aI11
aI12
aI13
aI14
aI15
aI16
aI17
aI18
aI19
aI20
aI21
aI22
aI23
aI24
ag113
atp3668
bsg43
Nstp3669
Rp3670
a(dp3671
g86
(dp3672
g88
g3335
sg89
(lp3673
(dp3674
g92
g93
(I0
I25
L1L
tp3675
Rp3676
sg96
g3357
sasstp3677
bsbsg450
g2
(g3
g4
Ntp3678
Rp3679
(dp3680
g8
g9
sg10
g11
sg12
g2
(g13
g4
Ntp3681
Rp3682
((lp3683
g17
(g18
(dp3684
g20
g21
(g22
(I0
tp3685
g24
tp3686
Rp3687
(I1
(L25L
tp3688
g31
I00
(lp3689
I1
aI2
aI3
aI4
aI5
aI6
aI7
aI8
aI9
aI10
aI11
aI12
aI13
aI14
aI15
aI16
aI17
aI18
aI19
aI20
aI21
aI22
aI23
aI24
ag113
atp3690
bsg43
Nstp3691
Rp3692
ag17
(g46
(dp3693
g20
g21
(g22
(I0
tp3694
g24
tp3695
Rp3696
(I1
(L12L
tp3697
g54
I00
S'\x00\x00\x00\x00\x00\x00\x00\x00\x01\x00\x00\x00\x00\x00\x00\x00\x02\x00\x00\x00\x00\x00\x00\x00\x03\x00\x00\x00\x00\x00\x00\x00\x04\x00\x00\x00\x00\x00\x00\x00\x05\x00\x00\x00\x00\x00\x00\x00\x06\x00\x00\x00\x00\x00\x00\x00\x07\x00\x00\x00\x00\x00\x00\x00\x08\x00\x00\x00\x00\x00\x00\x00\t\x00\x00\x00\x00\x00\x00\x00\n\x00\x00\x00\x00\x00\x00\x00\x0b\x00\x00\x00\x00\x00\x00\x00'
p3698
tp3699
bsg43
Nstp3700
Rp3701
a(lp3702
g21
(g22
(I0
tp3703
g24
tp3704
Rp3705
(I1
(L25L
L12L
tp3706
g31
I00
(lp3707
V0.00
p3708
aV21.57
p3709
aV0.00
p3710
aV0.00
p3711
aV14.14
p3712
aV18.18
p3713
aV0.00
p3714
aV0.00
p3715
aV0.00
p3716
aV0.00
p3717
aV0.00
p3718
aV15.71
p3719
aV21.57
p3720
aV0.07
p3721
aV0.00
p3722
aV0.00
p3723
aV0.00
p3724
aV0.00
p3725
aV0.04
p3726
aV0.00
p3727
aV0.00
p3728
aV0.00
p3729
aV0.06
p3730
aV0.00
p3731
aV0.00
p3732
aV0.00
p3733
aV18.47
p3734
aV0.00
p3735
aV0.00
p3736
aV0.00
p3737
aV0.00
p3738
aV0.00
p3739
aV0.00
p3740
aV18.51
p3741
aV0.00
p3742
aV0.00
p3743
aV0.00
p3744
aV6.91
p3745
aV0.00
p3746
aV0.00
p3747
aV0.00
p3748
aV0.00
p3749
aV14.20
p3750
aV0.00
p3751
aV0.00
p3752
aV0.00
p3753
aV0.00
p3754
aV0.00
p3755
aV0.00
p3756
aV0.00
p3757
aV13.60
p3758
aV0.00
p3759
aV4.56
p3760
aV0.00
p3761
aV0.00
p3762
aV0.00
p3763
aV0.06
p3764
aV0.00
p3765
aV0.06
p3766
aV19.07
p3767
aV0.00
p3768
aV0.00
p3769
aV0.00
p3770
aV0.00
p3771
aV0.00
p3772
aV0.02
p3773
aV0.00
p3774
aV0.00
p3775
aV0.00
p3776
aV0.00
p3777
aV0.00
p3778
aV0.00
p3779
aV0.00
p3780
aV0.00
p3781
aV0.00
p3782
aV0.02
p3783
aV0.02
p3784
aV1.62
p3785
aV0.02
p3786
aV0.02
p3787
aV0.00
p3788
aV0.00
p3789
aV0.00
p3790
aV0.04
p3791
aV0.00
p3792
aV0.04
p3793
aV0.02
p3794
aV0.02
p3795
aV0.04
p3796
aV0.00
p3797
aV8.25
p3798
aV10.94
p3799
aV0.02
p3800
aV0.04
p3801
aV2.27
p3802
aV0.00
p3803
aV9.36
p3804
aV0.00
p3805
aV0.02
p3806
aV0.02
p3807
aV0.00
p3808
aV0.00
p3809
aV18.35
p3810
aV21.57
p3811
aV0.04
p3812
aV0.00
p3813
aV11.27
p3814
aV10.46
p3815
aV0.00
p3816
aV0.02
p3817
aV0.02
p3818
aV0.04
p3819
aV0.02
p3820
aV0.00
p3821
aV21.57
p3822
aV17.93
p3823
aV0.00
p3824
aV0.02
p3825
aV0.00
p3826
aV14.65
p3827
aV0.00
p3828
aV13.09
p3829
aV9.45
p3830
aV0.00
p3831
aV5.51
p3832
aV21.57
p3833
aV2.33
p3834
aV0.07
p3835
aV3.23
p3836
aV21.57
p3837
aV0.00
p3838
aV0.00
p3839
aV0.53
p3840
aV21.57
p3841
aV0.00
p3842
aV4.57
p3843
aV0.00
p3844
aV0.00
p3845
aV0.07
p3846
aV0.07
p3847
aV21.57
p3848
aV0.00
p3849
aV0.00
p3850
aV0.00
p3851
aV8.45
p3852
aV0.00
p3853
aV0.00
p3854
aV21.57
p3855
aV0.00
p3856
aV0.00
p3857
aV0.07
p3858
aV0.07
p3859
aV21.02
p3860
aV21.57
p3861
aV21.57
p3862
aV0.00
p3863
aV14.22
p3864
aV0.00
p3865
aV21.57
p3866
aV0.00
p3867
aV21.57
p3868
aV20.15
p3869
aV0.07
p3870
aV0.07
p3871
aV0.00
p3872
aV0.00
p3873
aV0.00
p3874
aV2.72
p3875
aV10.18
p3876
aV0.00
p3877
aV15.45
p3878
aV17.64
p3879
aV18.64
p3880
aV7.30
p3881
aV0.00
p3882
aV0.07
p3883
aV4.74
p3884
aV7.43
p3885
aV16.86
p3886
aV21.57
p3887
aV7.90
p3888
aV15.95
p3889
aV4.10
p3890
aV6.76
p3891
aV4.83
p3892
aV0.07
p3893
aV0.00
p3894
aV0.00
p3895
aV0.07
p3896
aV0.00
p3897
aV0.07
p3898
aV1.29
p3899
aV0.00
p3900
aV0.00
p3901
aV0.07
p3902
aV0.00
p3903
aV0.07
p3904
aV0.00
p3905
aV0.00
p3906
aV0.00
p3907
aV0.00
p3908
aV0.14
p3909
aV0.00
p3910
aV0.00
p3911
aV0.00
p3912
aV0.00
p3913
aV0.00
p3914
aV0.14
p3915
aV0.07
p3916
aV0.00
p3917
aV0.00
p3918
aV0.00
p3919
aV0.00
p3920
aV0.00
p3921
aV0.00
p3922
aV0.00
p3923
aV4.48
p3924
aV0.00
p3925
aV0.00
p3926
aV0.00
p3927
aV0.00
p3928
aV0.00
p3929
aV21.57
p3930
aV18.59
p3931
aV0.00
p3932
aV4.85
p3933
aV0.00
p3934
aV0.00
p3935
aV0.00
p3936
aV12.17
p3937
aV0.00
p3938
aV0.00
p3939
aV0.00
p3940
aV6.35
p3941
aV0.00
p3942
aV0.46
p3943
aV0.00
p3944
aV0.00
p3945
aV0.00
p3946
aV0.00
p3947
aV0.00
p3948
aV0.00
p3949
aV15.57
p3950
aV0.00
p3951
aV0.00
p3952
aV0.00
p3953
aV0.00
p3954
aV0.00
p3955
aV0.00
p3956
aV0.00
p3957
aV0.00
p3958
aV0.00
p3959
aV21.57
p3960
aV0.00
p3961
aV0.00
p3962
aV0.00
p3963
aV0.00
p3964
aV0.00
p3965
aV0.00
p3966
aV21.57
p3967
aV21.57
p3968
aV0.00
p3969
aV0.00
p3970
aV0.00
p3971
aV0.00
p3972
aV0.00
p3973
aV0.00
p3974
aV0.00
p3975
aV0.00
p3976
aV0.02
p3977
aV0.06
p3978
aV0.00
p3979
aV0.00
p3980
aV0.00
p3981
aV0.00
p3982
aV0.00
p3983
aV21.57
p3984
aV0.00
p3985
aV0.00
p3986
aV11.75
p3987
aV0.00
p3988
aV0.38
p3989
aV0.00
p3990
aV0.00
p3991
aV0.00
p3992
aV18.44
p3993
aV0.00
p3994
aV0.00
p3995
aVjanuary
p3996
aVfebruary
p3997
aVmarch
p3998
aVapril
p3999
aVmay
p4000
aVjune
p4001
aVjuly
p4002
aVaugust
p4003
aVseptember
p4004
aVoctober
p4005
aVnovember
p4006
aVdecember
p4007
atp4008
ba(lp4009
g17
(g18
(dp4010
g20
g21
(g22
(I0
tp4011
g24
tp4012
Rp4013
(I1
(L25L
tp4014
g31
I00
(lp4015
I1
aI2
aI3
aI4
aI5
aI6
aI7
aI8
aI9
aI10
aI11
aI12
aI13
aI14
aI15
aI16
aI17
aI18
aI19
aI20
aI21
aI22
aI23
aI24
ag113
atp4016
bsg43
Nstp4017
Rp4018
a(dp4019
g86
(dp4020
g88
g3683
sg89
(lp4021
(dp4022
g92
g93
(I0
I25
L1L
tp4023
Rp4024
sg96
g3705
sasstp4025
bsbsg799
g2
(g3
g4
Ntp4026
Rp4027
(dp4028
g8
g9
sg10
g11
sg12
g2
(g13
g4
Ntp4029
Rp4030
((lp4031
g17
(g18
(dp4032
g20
g21
(g22
(I0
tp4033
g24
tp4034
Rp4035
(I1
(L25L
tp4036
g31
I00
(lp4037
I1
aI2
aI3
aI4
aI5
aI6
aI7
aI8
aI9
aI10
aI11
aI12
aI13
aI14
aI15
aI16
aI17
aI18
aI19
aI20
aI21
aI22
aI23
aI24
ag113
atp4038
bsg43
Nstp4039
Rp4040
ag17
(g46
(dp4041
g20
g21
(g22
(I0
tp4042
g24
tp4043
Rp4044
(I1
(L12L
tp4045
g54
I00
S'\x00\x00\x00\x00\x00\x00\x00\x00\x01\x00\x00\x00\x00\x00\x00\x00\x02\x00\x00\x00\x00\x00\x00\x00\x03\x00\x00\x00\x00\x00\x00\x00\x04\x00\x00\x00\x00\x00\x00\x00\x05\x00\x00\x00\x00\x00\x00\x00\x06\x00\x00\x00\x00\x00\x00\x00\x07\x00\x00\x00\x00\x00\x00\x00\x08\x00\x00\x00\x00\x00\x00\x00\t\x00\x00\x00\x00\x00\x00\x00\n\x00\x00\x00\x00\x00\x00\x00\x0b\x00\x00\x00\x00\x00\x00\x00'
p4046
tp4047
bsg43
Nstp4048
Rp4049
a(lp4050
g21
(g22
(I0
tp4051
g24
tp4052
Rp4053
(I1
(L25L
L12L
tp4054
g31
I00
(lp4055
V0.00
p4056
aV21.57
p4057
aV21.57
p4058
aV0.00
p4059
aV0.00
p4060
aV0.00
p4061
aV0.00
p4062
aV0.00
p4063
aV0.00
p4064
aV0.00
p4065
aV21.57
p4066
aV21.57
p4067
aV0.00
p4068
aV0.00
p4069
aV0.00
p4070
aV0.00
p4071
aV13.86
p4072
aV0.84
p4073
aV21.57
p4074
aV0.00
p4075
aV0.00
p4076
aV0.00
p4077
aV0.00
p4078
aV0.00
p4079
aV0.00
p4080
aV0.00
p4081
aV0.00
p4082
aV11.50
p4083
aV0.00
p4084
aV0.00
p4085
aV0.00
p4086
aV0.00
p4087
aV11.05
p4088
aV0.00
p4089
aV21.57
p4090
aV0.00
p4091
aV0.00
p4092
aV0.00
p4093
aV21.40
p4094
aV0.00
p4095
aV0.04
p4096
aV7.52
p4097
aV0.00
p4098
aV0.00
p4099
aV0.00
p4100
aV0.00
p4101
aV4.54
p4102
aV0.00
p4103
aV0.00
p4104
aV0.00
p4105
aV0.00
p4106
aV11.46
p4107
aV0.00
p4108
aV0.00
p4109
aV0.53
p4110
aV18.24
p4111
aV0.00
p4112
aV0.00
p4113
aV21.57
p4114
aV21.57
p4115
aV0.00
p4116
aV0.06
p4117
aV0.00
p4118
aV0.00
p4119
aV6.65
p4120
aV0.00
p4121
aV21.57
p4122
aV0.00
p4123
aV0.00
p4124
aV0.02
p4125
aV0.00
p4126
aV0.00
p4127
aV0.02
p4128
aV0.00
p4129
aV8.54
p4130
aV0.00
p4131
aV0.00
p4132
aV0.00
p4133
aV0.00
p4134
aV0.00
p4135
aV0.00
p4136
aV3.53
p4137
aV0.00
p4138
aV0.00
p4139
aV19.09
p4140
aV0.00
p4141
aV0.00
p4142
aV0.00
p4143
aV0.02
p4144
aV2.37
p4145
aV21.57
p4146
aV0.32
p4147
aV10.05
p4148
aV0.00
p4149
aV0.00
p4150
aV0.00
p4151
aV21.57
p4152
aV6.52
p4153
aV0.00
p4154
aV0.00
p4155
aV0.02
p4156
aV0.00
p4157
aV0.00
p4158
aV0.00
p4159
aV2.02
p4160
aV0.02
p4161
aV0.00
p4162
aV0.00
p4163
aV0.00
p4164
aV0.00
p4165
aV0.02
p4166
aV0.02
p4167
aV15.04
p4168
aV16.62
p4169
aV0.34
p4170
aV12.57
p4171
aV13.36
p4172
aV0.02
p4173
aV0.00
p4174
aV0.00
p4175
aV0.00
p4176
aV16.55
p4177
aV0.50
p4178
aV0.02
p4179
aV21.57
p4180
aV18.26
p4181
aV4.38
p4182
aV15.47
p4183
aV12.16
p4184
aV0.02
p4185
aV8.36
p4186
aV4.14
p4187
aV2.74
p4188
aV0.00
p4189
aV21.57
p4190
aV21.57
p4191
aV13.84
p4192
aV15.57
p4193
aV2.33
p4194
aV13.25
p4195
aV11.29
p4196
aV15.04
p4197
aV16.41
p4198
aV6.69
p4199
aV1.87
p4200
aV0.00
p4201
aV21.57
p4202
aV21.57
p4203
aV0.00
p4204
aV0.07
p4205
aV0.00
p4206
aV8.05
p4207
aV1.72
p4208
aV21.09
p4209
aV13.02
p4210
aV0.00
p4211
aV7.64
p4212
aV0.11
p4213
aV0.00
p4214
aV0.00
p4215
aV0.14
p4216
aV0.07
p4217
aV0.14
p4218
aV0.94
p4219
aV0.00
p4220
aV14.32
p4221
aV12.71
p4222
aV8.18
p4223
aV3.60
p4224
aV18.93
p4225
aV6.90
p4226
aV7.38
p4227
aV0.07
p4228
aV0.00
p4229
aV0.00
p4230
aV0.00
p4231
aV0.00
p4232
aV0.07
p4233
aV0.07
p4234
aV13.42
p4235
aV1.32
p4236
aV8.55
p4237
aV0.00
p4238
aV0.00
p4239
aV0.07
p4240
aV0.14
p4241
aV0.14
p4242
aV0.14
p4243
aV0.22
p4244
aV0.07
p4245
aV0.07
p4246
aV0.07
p4247
aV0.00
p4248
aV0.00
p4249
aV7.63
p4250
aV0.15
p4251
aV0.00
p4252
aV0.00
p4253
aV0.00
p4254
aV0.00
p4255
aV0.00
p4256
aV0.00
p4257
aV0.00
p4258
aV0.00
p4259
aV0.00
p4260
aV0.00
p4261
aV0.00
p4262
aV0.07
p4263
aV0.00
p4264
aV0.00
p4265
aV0.00
p4266
aV0.00
p4267
aV0.00
p4268
aV0.00
p4269
aV0.00
p4270
aV0.00
p4271
aV0.00
p4272
aV0.00
p4273
aV0.00
p4274
aV0.00
p4275
aV0.00
p4276
aV0.00
p4277
aV0.00
p4278
aV0.00
p4279
aV0.00
p4280
aV0.00
p4281
aV0.00
p4282
aV0.00
p4283
aV0.00
p4284
aV0.00
p4285
aV0.00
p4286
aV0.00
p4287
aV0.00
p4288
aV0.00
p4289
aV0.00
p4290
aV0.00
p4291
aV0.00
p4292
aV0.00
p4293
aV0.00
p4294
aV0.00
p4295
aV0.00
p4296
aV0.00
p4297
aV0.00
p4298
aV0.00
p4299
aV0.02
p4300
aV0.02
p4301
aV15.57
p4302
aV0.02
p4303
aV0.02
p4304
aV9.01
p4305
aV0.00
p4306
aV0.00
p4307
aV0.00
p4308
aV0.06
p4309
aV0.02
p4310
aV0.00
p4311
aV0.09
p4312
aV0.02
p4313
aV0.00
p4314
aV0.02
p4315
aV0.02
p4316
aV0.00
p4317
aV0.02
p4318
aV0.06
p4319
aV0.00
p4320
aV0.00
p4321
aV21.57
p4322
aV0.00
p4323
aV0.00
p4324
aV0.02
p4325
aV0.00
p4326
aV21.57
p4327
aV21.57
p4328
aV0.00
p4329
aV0.04
p4330
aV0.00
p4331
aV0.00
p4332
aV0.00
p4333
aV0.00
p4334
aV11.52
p4335
aV0.00
p4336
aV17.95
p4337
aV0.00
p4338
aV0.00
p4339
aV0.00
p4340
aV9.94
p4341
aV0.00
p4342
aV0.00
p4343
aVjanuary
p4344
aVfebruary
p4345
aVmarch
p4346
aVapril
p4347
aVmay
p4348
aVjune
p4349
aVjuly
p4350
aVaugust
p4351
aVseptember
p4352
aVoctober
p4353
aVnovember
p4354
aVdecember
p4355
atp4356
ba(lp4357
g17
(g18
(dp4358
g20
g21
(g22
(I0
tp4359
g24
tp4360
Rp4361
(I1
(L25L
tp4362
g31
I00
(lp4363
I1
aI2
aI3
aI4
aI5
aI6
aI7
aI8
aI9
aI10
aI11
aI12
aI13
aI14
aI15
aI16
aI17
aI18
aI19
aI20
aI21
aI22
aI23
aI24
ag113
atp4364
bsg43
Nstp4365
Rp4366
a(dp4367
g86
(dp4368
g88
g4031
sg89
(lp4369
(dp4370
g92
g93
(I0
I25
L1L
tp4371
Rp4372
sg96
g4053
sasstp4373
bsbssg1164
(dp4374
g100
g2
(g3
g4
Ntp4375
Rp4376
(dp4377
g8
g9
sg10
g11
sg12
g2
(g13
g4
Ntp4378
Rp4379
((lp4380
g17
(g18
(dp4381
g20
g21
(g22
(I0
tp4382
g24
tp4383
Rp4384
(I1
(L25L
tp4385
g31
I00
(lp4386
I1
aI2
aI3
aI4
aI5
aI6
aI7
aI8
aI9
aI10
aI11
aI12
aI13
aI14
aI15
aI16
aI17
aI18
aI19
aI20
aI21
aI22
aI23
aI24
ag113
atp4387
bsg43
Nstp4388
Rp4389
ag17
(g46
(dp4390
g20
g21
(g22
(I0
tp4391
g24
tp4392
Rp4393
(I1
(L12L
tp4394
g54
I00
S'\x00\x00\x00\x00\x00\x00\x00\x00\x01\x00\x00\x00\x00\x00\x00\x00\x02\x00\x00\x00\x00\x00\x00\x00\x03\x00\x00\x00\x00\x00\x00\x00\x04\x00\x00\x00\x00\x00\x00\x00\x05\x00\x00\x00\x00\x00\x00\x00\x06\x00\x00\x00\x00\x00\x00\x00\x07\x00\x00\x00\x00\x00\x00\x00\x08\x00\x00\x00\x00\x00\x00\x00\t\x00\x00\x00\x00\x00\x00\x00\n\x00\x00\x00\x00\x00\x00\x00\x0b\x00\x00\x00\x00\x00\x00\x00'
p4395
tp4396
bsg43
Nstp4397
Rp4398
a(lp4399
g21
(g22
(I0
tp4400
g24
tp4401
Rp4402
(I1
(L25L
L12L
tp4403
g31
I00
(lp4404
V0.00
p4405
aV0.00
p4406
aV0.00
p4407
aV0.00
p4408
aV0.00
p4409
aV0.00
p4410
aV0.00
p4411
aV0.00
p4412
aV0.00
p4413
aV0.00
p4414
aV0.00
p4415
aV0.00
p4416
aV0.00
p4417
aV0.00
p4418
aV0.00
p4419
aV0.00
p4420
aV0.00
p4421
aV0.00
p4422
aV0.00
p4423
aV0.00
p4424
aV0.00
p4425
aV0.00
p4426
aV0.00
p4427
aV0.00
p4428
aV0.00
p4429
aV0.00
p4430
aV0.00
p4431
aV0.00
p4432
aV0.00
p4433
aV0.00
p4434
aV0.00
p4435
aV0.00
p4436
aV0.00
p4437
aV0.00
p4438
aV0.00
p4439
aV0.00
p4440
aV0.00
p4441
aV0.00
p4442
aV0.00
p4443
aV0.00
p4444
aV0.00
p4445
aV0.00
p4446
aV0.00
p4447
aV0.00
p4448
aV0.00
p4449
aV0.00
p4450
aV0.00
p4451
aV0.00
p4452
aV0.00
p4453
aV0.00
p4454
aV0.00
p4455
aV0.00
p4456
aV0.00
p4457
aV0.00
p4458
aV0.00
p4459
aV0.00
p4460
aV0.00
p4461
aV0.00
p4462
aV0.00
p4463
aV0.00
p4464
aV0.00
p4465
aV0.00
p4466
aV0.00
p4467
aV0.03
p4468
aV2.51
p4469
aV0.00
p4470
aV0.00
p4471
aV0.00
p4472
aV0.00
p4473
aV0.00
p4474
aV0.00
p4475
aV0.00
p4476
aV0.00
p4477
aV0.00
p4478
aV1.89
p4479
aV9.06
p4480
aV13.07
p4481
aV12.42
p4482
aV11.54
p4483
aV11.14
p4484
aV7.40
p4485
aV3.73
p4486
aV0.00
p4487
aV0.00
p4488
aV0.78
p4489
aV10.84
p4490
aV21.63
p4491
aV28.40
p4492
aV29.11
p4493
aV28.56
p4494
aV31.22
p4495
aV29.11
p4496
aV28.39
p4497
aV28.98
p4498
aV14.48
p4499
aV1.98
p4500
aV31.32
p4501
aV28.66
p4502
aV38.33
p4503
aV43.69
p4504
aV44.31
p4505
aV43.58
p4506
aV40.60
p4507
aV44.35
p4508
aV43.35
p4509
aV44.12
p4510
aV34.24
p4511
aV29.79
p4512
aV38.73
p4513
aV43.69
p4514
aV45.34
p4515
aV46.08
p4516
aV46.39
p4517
aV67.45
p4518
aV65.32
p4519
aV68.98
p4520
aV46.23
p4521
aV46.28
p4522
aV37.90
p4523
aV38.90
p4524
aV46.72
p4525
aV46.06
p4526
aV53.64
p4527
aV46.03
p4528
aV46.36
p4529
aV69.85
p4530
aV73.45
p4531
aV73.52
p4532
aV69.05
p4533
aV67.83
p4534
aV44.37
p4535
aV52.60
p4536
aV51.20
p4537
aV46.06
p4538
aV67.92
p4539
aV67.61
p4540
aV53.70
p4541
aV58.84
p4542
aV72.72
p4543
aV63.39
p4544
aV70.39
p4545
aV67.83
p4546
aV64.86
p4547
aV55.15
p4548
aV50.33
p4549
aV46.06
p4550
aV67.92
p4551
aV54.91
p4552
aV68.77
p4553
aV53.61
p4554
aV60.89
p4555
aV59.45
p4556
aV50.51
p4557
aV46.27
p4558
aV45.18
p4559
aV45.60
p4560
aV56.09
p4561
aV67.61
p4562
aV46.40
p4563
aV66.04
p4564
aV69.56
p4565
aV54.96
p4566
aV63.10
p4567
aV61.43
p4568
aV58.43
p4569
aV46.49
p4570
aV61.17
p4571
aV56.64
p4572
aV52.06
p4573
aV67.38
p4574
aV46.49
p4575
aV46.19
p4576
aV48.82
p4577
aV56.66
p4578
aV64.05
p4579
aV64.60
p4580
aV51.54
p4581
aV54.30
p4582
aV59.17
p4583
aV61.87
p4584
aV49.78
p4585
aV53.57
p4586
aV46.57
p4587
aV46.19
p4588
aV47.33
p4589
aV49.82
p4590
aV49.28
p4591
aV53.44
p4592
aV43.41
p4593
aV37.66
p4594
aV42.57
p4595
aV41.46
p4596
aV5.34
p4597
aV33.01
p4598
aV32.10
p4599
aV32.64
p4600
aV29.71
p4601
aV31.97
p4602
aV32.45
p4603
aV35.53
p4604
aV28.53
p4605
aV15.76
p4606
aV2.86
p4607
aV0.51
p4608
aV0.00
p4609
aV1.19
p4610
aV5.32
p4611
aV16.26
p4612
aV14.58
p4613
aV15.44
p4614
aV16.12
p4615
aV15.87
p4616
aV3.67
p4617
aV0.37
p4618
aV0.00
p4619
aV0.00
p4620
aV0.00
p4621
aV0.00
p4622
aV0.00
p4623
aV0.17
p4624
aV0.00
p4625
aV6.90
p4626
aV7.15
p4627
aV0.34
p4628
aV0.00
p4629
aV0.00
p4630
aV0.00
p4631
aV0.00
p4632
aV0.00
p4633
aV0.00
p4634
aV0.00
p4635
aV0.00
p4636
aV0.00
p4637
aV0.00
p4638
aV0.00
p4639
aV0.00
p4640
aV0.00
p4641
aV0.00
p4642
aV0.00
p4643
aV0.00
p4644
aV0.00
p4645
aV0.00
p4646
aV0.00
p4647
aV0.00
p4648
aV0.00
p4649
aV0.00
p4650
aV0.00
p4651
aV0.00
p4652
aV0.00
p4653
aV0.00
p4654
aV0.00
p4655
aV0.00
p4656
aV0.00
p4657
aV0.00
p4658
aV0.00
p4659
aV0.00
p4660
aV0.00
p4661
aV0.00
p4662
aV0.00
p4663
aV0.00
p4664
aV0.00
p4665
aV0.00
p4666
aV0.00
p4667
aV0.00
p4668
aV0.00
p4669
aV0.00
p4670
aV0.00
p4671
aV0.00
p4672
aV0.00
p4673
aV0.00
p4674
aV0.00
p4675
aV0.00
p4676
aV0.00
p4677
aV0.00
p4678
aV0.00
p4679
aV0.00
p4680
aV0.00
p4681
aV0.00
p4682
aV0.00
p4683
aV0.00
p4684
aV0.00
p4685
aV0.00
p4686
aV0.00
p4687
aV0.00
p4688
aV0.00
p4689
aV0.00
p4690
aV0.00
p4691
aV0.00
p4692
aVjanuary
p4693
aVfebruary
p4694
aVmarch
p4695
aVapril
p4696
aVmay
p4697
aVjune
p4698
aVjuly
p4699
aVaugust
p4700
aVseptember
p4701
aVoctober
p4702
aVnovember
p4703
aVdecember
p4704
atp4705
ba(lp4706
g17
(g18
(dp4707
g20
g21
(g22
(I0
tp4708
g24
tp4709
Rp4710
(I1
(L25L
tp4711
g31
I00
(lp4712
I1
aI2
aI3
aI4
aI5
aI6
aI7
aI8
aI9
aI10
aI11
aI12
aI13
aI14
aI15
aI16
aI17
aI18
aI19
aI20
aI21
aI22
aI23
aI24
ag113
atp4713
bsg43
Nstp4714
Rp4715
a(dp4716
g86
(dp4717
g88
g4380
sg89
(lp4718
(dp4719
g92
g93
(I0
I25
L1L
tp4720
Rp4721
sg96
g4402
sasstp4722
bsbsg450
g2
(g3
g4
Ntp4723
Rp4724
(dp4725
g8
g9
sg10
g11
sg12
g2
(g13
g4
Ntp4726
Rp4727
((lp4728
g17
(g18
(dp4729
g20
g21
(g22
(I0
tp4730
g24
tp4731
Rp4732
(I1
(L25L
tp4733
g31
I00
(lp4734
I1
aI2
aI3
aI4
aI5
aI6
aI7
aI8
aI9
aI10
aI11
aI12
aI13
aI14
aI15
aI16
aI17
aI18
aI19
aI20
aI21
aI22
aI23
aI24
ag113
atp4735
bsg43
Nstp4736
Rp4737
ag17
(g46
(dp4738
g20
g21
(g22
(I0
tp4739
g24
tp4740
Rp4741
(I1
(L12L
tp4742
g54
I00
S'\x00\x00\x00\x00\x00\x00\x00\x00\x01\x00\x00\x00\x00\x00\x00\x00\x02\x00\x00\x00\x00\x00\x00\x00\x03\x00\x00\x00\x00\x00\x00\x00\x04\x00\x00\x00\x00\x00\x00\x00\x05\x00\x00\x00\x00\x00\x00\x00\x06\x00\x00\x00\x00\x00\x00\x00\x07\x00\x00\x00\x00\x00\x00\x00\x08\x00\x00\x00\x00\x00\x00\x00\t\x00\x00\x00\x00\x00\x00\x00\n\x00\x00\x00\x00\x00\x00\x00\x0b\x00\x00\x00\x00\x00\x00\x00'
p4743
tp4744
bsg43
Nstp4745
Rp4746
a(lp4747
g21
(g22
(I0
tp4748
g24
tp4749
Rp4750
(I1
(L25L
L12L
tp4751
g31
I00
(lp4752
V0.00
p4753
aV0.00
p4754
aV0.00
p4755
aV0.00
p4756
aV0.00
p4757
aV0.00
p4758
aV0.00
p4759
aV0.00
p4760
aV0.00
p4761
aV0.00
p4762
aV0.00
p4763
aV0.00
p4764
aV0.00
p4765
aV0.00
p4766
aV0.00
p4767
aV0.00
p4768
aV0.00
p4769
aV0.00
p4770
aV0.00
p4771
aV0.00
p4772
aV0.00
p4773
aV0.00
p4774
aV0.00
p4775
aV0.00
p4776
aV0.00
p4777
aV0.00
p4778
aV0.00
p4779
aV0.00
p4780
aV0.00
p4781
aV0.00
p4782
aV0.00
p4783
aV0.00
p4784
aV0.00
p4785
aV0.00
p4786
aV0.00
p4787
aV0.00
p4788
aV0.00
p4789
aV0.00
p4790
aV0.00
p4791
aV0.00
p4792
aV0.00
p4793
aV0.00
p4794
aV0.00
p4795
aV0.00
p4796
aV0.00
p4797
aV0.00
p4798
aV0.00
p4799
aV0.00
p4800
aV0.00
p4801
aV0.00
p4802
aV0.00
p4803
aV0.00
p4804
aV0.00
p4805
aV0.00
p4806
aV0.00
p4807
aV0.00
p4808
aV0.00
p4809
aV0.00
p4810
aV0.00
p4811
aV0.00
p4812
aV0.00
p4813
aV0.00
p4814
aV0.00
p4815
aV0.03
p4816
aV2.51
p4817
aV0.00
p4818
aV0.00
p4819
aV0.00
p4820
aV0.00
p4821
aV0.00
p4822
aV0.00
p4823
aV0.00
p4824
aV0.00
p4825
aV0.00
p4826
aV1.89
p4827
aV9.06
p4828
aV8.91
p4829
aV12.42
p4830
aV10.82
p4831
aV10.82
p4832
aV7.40
p4833
aV3.73
p4834
aV0.00
p4835
aV0.00
p4836
aV0.78
p4837
aV9.58
p4838
aV19.98
p4839
aV22.99
p4840
aV20.74
p4841
aV22.97
p4842
aV31.22
p4843
aV33.91
p4844
aV19.96
p4845
aV22.00
p4846
aV14.48
p4847
aV1.98
p4848
aV31.32
p4849
aV20.70
p4850
aV29.14
p4851
aV31.19
p4852
aV26.84
p4853
aV31.29
p4854
aV50.00
p4855
aV53.02
p4856
aV25.45
p4857
aV29.24
p4858
aV34.24
p4859
aV29.79
p4860
aV29.24
p4861
aV26.86
p4862
aV36.30
p4863
aV38.03
p4864
aV35.39
p4865
aV38.77
p4866
aV62.30
p4867
aV57.67
p4868
aV34.50
p4869
aV36.85
p4870
aV32.87
p4871
aV38.90
p4872
aV36.82
p4873
aV48.46
p4874
aV47.44
p4875
aV37.99
p4876
aV40.88
p4877
aV61.83
p4878
aV48.58
p4879
aV43.21
p4880
aV38.39
p4881
aV58.39
p4882
aV36.90
p4883
aV33.80
p4884
aV37.35
p4885
aV56.94
p4886
aV41.40
p4887
aV47.10
p4888
aV41.06
p4889
aV47.32
p4890
aV56.49
p4891
aV52.20
p4892
aV65.59
p4893
aV41.88
p4894
aV39.12
p4895
aV33.80
p4896
aV50.33
p4897
aV41.05
p4898
aV42.53
p4899
aV64.11
p4900
aV41.34
p4901
aV49.74
p4902
aV60.29
p4903
aV56.18
p4904
aV66.95
p4905
aV63.46
p4906
aV64.11
p4907
aV40.17
p4908
aV56.09
p4909
aV41.05
p4910
aV64.11
p4911
aV42.61
p4912
aV63.39
p4913
aV72.37
p4914
aV63.31
p4915
aV59.44
p4916
aV46.99
p4917
aV42.02
p4918
aV42.53
p4919
aV42.89
p4920
aV52.06
p4921
aV41.05
p4922
aV57.98
p4923
aV60.54
p4924
aV60.92
p4925
aV61.55
p4926
aV64.05
p4927
aV61.65
p4928
aV52.72
p4929
aV49.67
p4930
aV59.40
p4931
aV61.74
p4932
aV49.78
p4933
aV57.00
p4934
aV46.64
p4935
aV49.78
p4936
aV47.33
p4937
aV49.82
p4938
aV49.28
p4939
aV53.44
p4940
aV43.41
p4941
aV37.66
p4942
aV42.57
p4943
aV41.46
p4944
aV5.34
p4945
aV33.01
p4946
aV32.10
p4947
aV32.64
p4948
aV29.71
p4949
aV31.97
p4950
aV32.45
p4951
aV35.53
p4952
aV28.53
p4953
aV15.76
p4954
aV2.86
p4955
aV0.51
p4956
aV0.00
p4957
aV1.19
p4958
aV5.32
p4959
aV16.26
p4960
aV14.58
p4961
aV15.44
p4962
aV16.12
p4963
aV15.87
p4964
aV3.67
p4965
aV0.37
p4966
aV0.00
p4967
aV0.00
p4968
aV0.00
p4969
aV0.00
p4970
aV0.00
p4971
aV0.17
p4972
aV0.00
p4973
aV6.90
p4974
aV7.15
p4975
aV0.34
p4976
aV0.00
p4977
aV0.00
p4978
aV0.00
p4979
aV0.00
p4980
aV0.00
p4981
aV0.00
p4982
aV0.00
p4983
aV0.00
p4984
aV0.00
p4985
aV0.00
p4986
aV0.00
p4987
aV0.00
p4988
aV0.00
p4989
aV0.00
p4990
aV0.00
p4991
aV0.00
p4992
aV0.00
p4993
aV0.00
p4994
aV0.00
p4995
aV0.00
p4996
aV0.00
p4997
aV0.00
p4998
aV0.00
p4999
aV0.00
p5000
aV0.00
p5001
aV0.00
p5002
aV0.00
p5003
aV0.00
p5004
aV0.00
p5005
aV0.00
p5006
aV0.00
p5007
aV0.00
p5008
aV0.00
p5009
aV0.00
p5010
aV0.00
p5011
aV0.00
p5012
aV0.00
p5013
aV0.00
p5014
aV0.00
p5015
aV0.00
p5016
aV0.00
p5017
aV0.00
p5018
aV0.00
p5019
aV0.00
p5020
aV0.00
p5021
aV0.00
p5022
aV0.00
p5023
aV0.00
p5024
aV0.00
p5025
aV0.00
p5026
aV0.00
p5027
aV0.00
p5028
aV0.00
p5029
aV0.00
p5030
aV0.00
p5031
aV0.00
p5032
aV0.00
p5033
aV0.00
p5034
aV0.00
p5035
aV0.00
p5036
aV0.00
p5037
aV0.00
p5038
aV0.00
p5039
aV0.00
p5040
aVjanuary
p5041
aVfebruary
p5042
aVmarch
p5043
aVapril
p5044
aVmay
p5045
aVjune
p5046
aVjuly
p5047
aVaugust
p5048
aVseptember
p5049
aVoctober
p5050
aVnovember
p5051
aVdecember
p5052
atp5053
ba(lp5054
g17
(g18
(dp5055
g20
g21
(g22
(I0
tp5056
g24
tp5057
Rp5058
(I1
(L25L
tp5059
g31
I00
(lp5060
I1
aI2
aI3
aI4
aI5
aI6
aI7
aI8
aI9
aI10
aI11
aI12
aI13
aI14
aI15
aI16
aI17
aI18
aI19
aI20
aI21
aI22
aI23
aI24
ag113
atp5061
bsg43
Nstp5062
Rp5063
a(dp5064
g86
(dp5065
g88
g4728
sg89
(lp5066
(dp5067
g92
g93
(I0
I25
L1L
tp5068
Rp5069
sg96
g4750
sasstp5070
bsbsg799
g2
(g3
g4
Ntp5071
Rp5072
(dp5073
g8
g9
sg10
g11
sg12
g2
(g13
g4
Ntp5074
Rp5075
((lp5076
g17
(g18
(dp5077
g20
g21
(g22
(I0
tp5078
g24
tp5079
Rp5080
(I1
(L25L
tp5081
g31
I00
(lp5082
I1
aI2
aI3
aI4
aI5
aI6
aI7
aI8
aI9
aI10
aI11
aI12
aI13
aI14
aI15
aI16
aI17
aI18
aI19
aI20
aI21
aI22
aI23
aI24
ag113
atp5083
bsg43
Nstp5084
Rp5085
ag17
(g46
(dp5086
g20
g21
(g22
(I0
tp5087
g24
tp5088
Rp5089
(I1
(L12L
tp5090
g54
I00
S'\x00\x00\x00\x00\x00\x00\x00\x00\x01\x00\x00\x00\x00\x00\x00\x00\x02\x00\x00\x00\x00\x00\x00\x00\x03\x00\x00\x00\x00\x00\x00\x00\x04\x00\x00\x00\x00\x00\x00\x00\x05\x00\x00\x00\x00\x00\x00\x00\x06\x00\x00\x00\x00\x00\x00\x00\x07\x00\x00\x00\x00\x00\x00\x00\x08\x00\x00\x00\x00\x00\x00\x00\t\x00\x00\x00\x00\x00\x00\x00\n\x00\x00\x00\x00\x00\x00\x00\x0b\x00\x00\x00\x00\x00\x00\x00'
p5091
tp5092
bsg43
Nstp5093
Rp5094
a(lp5095
g21
(g22
(I0
tp5096
g24
tp5097
Rp5098
(I1
(L25L
L12L
tp5099
g31
I00
(lp5100
V0.00
p5101
aV0.00
p5102
aV0.00
p5103
aV0.00
p5104
aV0.00
p5105
aV0.00
p5106
aV0.00
p5107
aV0.00
p5108
aV0.00
p5109
aV0.00
p5110
aV0.00
p5111
aV0.00
p5112
aV0.00
p5113
aV0.00
p5114
aV0.00
p5115
aV0.00
p5116
aV0.00
p5117
aV0.00
p5118
aV0.00
p5119
aV0.00
p5120
aV0.00
p5121
aV0.00
p5122
aV0.00
p5123
aV0.00
p5124
aV0.00
p5125
aV0.00
p5126
aV0.00
p5127
aV0.00
p5128
aV0.00
p5129
aV0.00
p5130
aV0.00
p5131
aV0.00
p5132
aV0.00
p5133
aV0.00
p5134
aV0.00
p5135
aV0.00
p5136
aV0.00
p5137
aV0.00
p5138
aV0.00
p5139
aV0.00
p5140
aV0.00
p5141
aV0.00
p5142
aV0.00
p5143
aV0.00
p5144
aV0.00
p5145
aV0.00
p5146
aV0.00
p5147
aV0.00
p5148
aV0.00
p5149
aV0.00
p5150
aV0.00
p5151
aV0.00
p5152
aV0.00
p5153
aV0.00
p5154
aV0.00
p5155
aV0.00
p5156
aV0.00
p5157
aV0.00
p5158
aV0.00
p5159
aV0.00
p5160
aV0.00
p5161
aV0.00
p5162
aV0.00
p5163
aV0.03
p5164
aV2.51
p5165
aV0.00
p5166
aV0.00
p5167
aV0.00
p5168
aV0.00
p5169
aV0.00
p5170
aV0.00
p5171
aV0.00
p5172
aV0.00
p5173
aV0.00
p5174
aV1.89
p5175
aV9.06
p5176
aV13.07
p5177
aV12.42
p5178
aV11.54
p5179
aV11.14
p5180
aV7.40
p5181
aV3.73
p5182
aV0.00
p5183
aV0.00
p5184
aV0.78
p5185
aV10.84
p5186
aV21.63
p5187
aV28.40
p5188
aV32.09
p5189
aV34.44
p5190
aV31.22
p5191
aV32.39
p5192
aV28.68
p5193
aV29.24
p5194
aV14.48
p5195
aV1.98
p5196
aV31.32
p5197
aV38.58
p5198
aV41.61
p5199
aV46.39
p5200
aV48.48
p5201
aV46.61
p5202
aV50.00
p5203
aV50.31
p5204
aV50.48
p5205
aV46.38
p5206
aV34.24
p5207
aV29.79
p5208
aV38.73
p5209
aV48.46
p5210
aV48.48
p5211
aV48.48
p5212
aV63.50
p5213
aV67.45
p5214
aV65.32
p5215
aV69.14
p5216
aV62.76
p5217
aV48.48
p5218
aV46.77
p5219
aV38.90
p5220
aV46.72
p5221
aV65.01
p5222
aV48.96
p5223
aV48.48
p5224
aV72.78
p5225
aV74.35
p5226
aV73.45
p5227
aV77.36
p5228
aV70.03
p5229
aV48.48
p5230
aV56.81
p5231
aV52.60
p5232
aV51.20
p5233
aV48.46
p5234
aV70.03
p5235
aV70.03
p5236
aV66.13
p5237
aV75.09
p5238
aV76.58
p5239
aV79.51
p5240
aV73.56
p5241
aV63.54
p5242
aV64.86
p5243
aV55.15
p5244
aV50.33
p5245
aV48.46
p5246
aV70.08
p5247
aV70.03
p5248
aV58.00
p5249
aV64.12
p5250
aV75.10
p5251
aV78.51
p5252
aV66.95
p5253
aV71.25
p5254
aV61.47
p5255
aV45.60
p5256
aV56.09
p5257
aV48.56
p5258
aV50.23
p5259
aV48.57
p5260
aV60.43
p5261
aV67.97
p5262
aV69.90
p5263
aV75.21
p5264
aV61.60
p5265
aV66.88
p5266
aV61.17
p5267
aV56.64
p5268
aV52.06
p5269
aV67.38
p5270
aV57.98
p5271
aV59.26
p5272
aV60.92
p5273
aV62.87
p5274
aV64.05
p5275
aV67.11
p5276
aV52.72
p5277
aV54.80
p5278
aV48.53
p5279
aV61.87
p5280
aV49.78
p5281
aV57.00
p5282
aV46.64
p5283
aV49.78
p5284
aV47.33
p5285
aV49.82
p5286
aV49.28
p5287
aV53.44
p5288
aV43.41
p5289
aV37.66
p5290
aV42.57
p5291
aV41.46
p5292
aV5.34
p5293
aV33.01
p5294
aV32.10
p5295
aV32.64
p5296
aV29.71
p5297
aV31.97
p5298
aV32.45
p5299
aV35.53
p5300
aV28.53
p5301
aV15.76
p5302
aV2.86
p5303
aV0.51
p5304
aV0.00
p5305
aV1.19
p5306
aV5.32
p5307
aV16.26
p5308
aV14.58
p5309
aV15.44
p5310
aV16.12
p5311
aV15.87
p5312
aV3.67
p5313
aV0.37
p5314
aV0.00
p5315
aV0.00
p5316
aV0.00
p5317
aV0.00
p5318
aV0.00
p5319
aV0.17
p5320
aV0.00
p5321
aV6.90
p5322
aV7.15
p5323
aV0.34
p5324
aV0.00
p5325
aV0.00
p5326
aV0.00
p5327
aV0.00
p5328
aV0.00
p5329
aV0.00
p5330
aV0.00
p5331
aV0.00
p5332
aV0.00
p5333
aV0.00
p5334
aV0.00
p5335
aV0.00
p5336
aV0.00
p5337
aV0.00
p5338
aV0.00
p5339
aV0.00
p5340
aV0.00
p5341
aV0.00
p5342
aV0.00
p5343
aV0.00
p5344
aV0.00
p5345
aV0.00
p5346
aV0.00
p5347
aV0.00
p5348
aV0.00
p5349
aV0.00
p5350
aV0.00
p5351
aV0.00
p5352
aV0.00
p5353
aV0.00
p5354
aV0.00
p5355
aV0.00
p5356
aV0.00
p5357
aV0.00
p5358
aV0.00
p5359
aV0.00
p5360
aV0.00
p5361
aV0.00
p5362
aV0.00
p5363
aV0.00
p5364
aV0.00
p5365
aV0.00
p5366
aV0.00
p5367
aV0.00
p5368
aV0.00
p5369
aV0.00
p5370
aV0.00
p5371
aV0.00
p5372
aV0.00
p5373
aV0.00
p5374
aV0.00
p5375
aV0.00
p5376
aV0.00
p5377
aV0.00
p5378
aV0.00
p5379
aV0.00
p5380
aV0.00
p5381
aV0.00
p5382
aV0.00
p5383
aV0.00
p5384
aV0.00
p5385
aV0.00
p5386
aV0.00
p5387
aV0.00
p5388
aVjanuary
p5389
aVfebruary
p5390
aVmarch
p5391
aVapril
p5392
aVmay
p5393
aVjune
p5394
aVjuly
p5395
aVaugust
p5396
aVseptember
p5397
aVoctober
p5398
aVnovember
p5399
aVdecember
p5400
atp5401
ba(lp5402
g17
(g18
(dp5403
g20
g21
(g22
(I0
tp5404
g24
tp5405
Rp5406
(I1
(L25L
tp5407
g31
I00
(lp5408
I1
aI2
aI3
aI4
aI5
aI6
aI7
aI8
aI9
aI10
aI11
aI12
aI13
aI14
aI15
aI16
aI17
aI18
aI19
aI20
aI21
aI22
aI23
aI24
ag113
atp5409
bsg43
Nstp5410
Rp5411
a(dp5412
g86
(dp5413
g88
g5076
sg89
(lp5414
(dp5415
g92
g93
(I0
I25
L1L
tp5416
Rp5417
sg96
g5098
sasstp5418
bsbssg1167
I00
s.