(dp0
S'renewables_new_capacity'
p1
ccopy_reg
_reconstructor
p2
(cpandas.core.frame
DataFrame
p3
c__builtin__
object
p4
Ntp5
Rp6
(dp7
S'_metadata'
p8
(lp9
sS'_typ'
p10
S'dataframe'
p11
sS'_data'
p12
g2
(cpandas.core.internals
BlockManager
p13
g4
Ntp14
Rp15
((lp16
cpandas.indexes.base
_new_Index
p17
(cpandas.indexes.base
Index
p18
(dp19
S'data'
p20
cnumpy.core.multiarray
_reconstruct
p21
(cnumpy
ndarray
p22
(I0
tp23
S'b'
p24
tp25
Rp26
(I1
(L7L
tp27
cnumpy
dtype
p28
(S'O8'
p29
I0
I1
tp30
Rp31
(I3
S'|'
p32
NNNI-1
I-1
I63
tp33
bI00
(lp34
VAge
p35
aVExisting Capacity (kW)
p36
aVLifetime
p37
aVNew Capacity (kW)
p38
aVSize of PV/Solar-Thermal (m^2)
p39
aVTechnology
p40
aVTotal Capacity (kW)
p41
atp42
bsS'name'
p43
Nstp44
Rp45
ag17
(cpandas.indexes.numeric
Int64Index
p46
(dp47
g20
g21
(g22
(I0
tp48
g24
tp49
Rp50
(I1
(L1L
tp51
g28
(S'i8'
p52
I0
I1
tp53
Rp54
(I3
S'<'
p55
NNNI-1
I-1
I0
tp56
bI00
S'\x00\x00\x00\x00\x00\x00\x00\x00'
p57
tp58
bsg43
Nstp59
Rp60
a(lp61
g21
(g22
(I0
tp62
g24
tp63
Rp64
(I1
(L7L
L1L
tp65
g31
I00
(lp66
V""
p67
aV0
p68
aV30
p69
aV131
p70
aV873
p71
aV"Photovoltaic (kW)  peak power under test conditions"
p72
aV131
p73
atp74
ba(lp75
g17
(g18
(dp76
g20
g21
(g22
(I0
tp77
g24
tp78
Rp79
(I1
(L7L
tp80
g31
I00
(lp81
g35
ag36
ag37
ag38
ag39
ag40
ag41
atp82
bsg43
Nstp83
Rp84
a(dp85
S'0.14.1'
p86
(dp87
S'axes'
p88
g16
sS'blocks'
p89
(lp90
(dp91
S'mgr_locs'
p92
c__builtin__
slice
p93
(I0
I7
L1L
tp94
Rp95
sS'values'
p96
g64
sasstp97
bsbsS'purchase_from_utility'
p98
(dp99
S'week'
p100
g2
(g3
g4
Ntp101
Rp102
(dp103
g8
g9
sg10
g11
sg12
g2
(g13
g4
Ntp104
Rp105
((lp106
g17
(g18
(dp107
g20
g21
(g22
(I0
tp108
g24
tp109
Rp110
(I1
(L25L
tp111
g31
I00
(lp112
I1
aI2
aI3
aI4
aI5
aI6
aI7
aI8
aI9
aI10
aI11
aI12
aI13
aI14
aI15
aI16
aI17
aI18
aI19
aI20
aI21
aI22
aI23
aI24
aS'month'
p113
atp114
bsg43
Nstp115
Rp116
ag17
(g46
(dp117
g20
g21
(g22
(I0
tp118
g24
tp119
Rp120
(I1
(L12L
tp121
g54
I00
S'\x00\x00\x00\x00\x00\x00\x00\x00\x01\x00\x00\x00\x00\x00\x00\x00\x02\x00\x00\x00\x00\x00\x00\x00\x03\x00\x00\x00\x00\x00\x00\x00\x04\x00\x00\x00\x00\x00\x00\x00\x05\x00\x00\x00\x00\x00\x00\x00\x06\x00\x00\x00\x00\x00\x00\x00\x07\x00\x00\x00\x00\x00\x00\x00\x08\x00\x00\x00\x00\x00\x00\x00\t\x00\x00\x00\x00\x00\x00\x00\n\x00\x00\x00\x00\x00\x00\x00\x0b\x00\x00\x00\x00\x00\x00\x00'
p122
tp123
bsg43
Nstp124
Rp125
a(lp126
g21
(g22
(I0
tp127
g24
tp128
Rp129
(I1
(L25L
L12L
tp130
g31
I00
(lp131
V18.60
p132
aV20.68
p133
aV25.77
p134
aV11.72
p135
aV2.68
p136
aV14.72
p137
aV22.69
p138
aV15.42
p139
aV15.63
p140
aV16.20
p141
aV33.44
p142
aV34.14
p143
aV19.19
p144
aV18.72
p145
aV17.89
p146
aV17.89
p147
aV15.80
p148
aV5.57
p149
aV14.68
p150
aV14.75
p151
aV1.81
p152
aV16.42
p153
aV23.31
p154
aV6.12
p155
aV18.77
p156
aV18.82
p157
aV18.05
p158
aV17.89
p159
aV16.59
p160
aV14.72
p161
aV9.59
p162
aV15.42
p163
aV14.68
p164
aV24.86
p165
aV17.77
p166
aV18.48
p167
aV35.26
p168
aV18.99
p169
aV18.13
p170
aV17.08
p171
aV16.19
p172
aV14.72
p173
aV1.81
p174
aV14.75
p175
aV14.68
p176
aV5.98
p177
aV5.28
p178
aV19.27
p179
aV6.04
p180
aV20.68
p181
aV25.77
p182
aV17.89
p183
aV14.05
p184
aV16.22
p185
aV22.69
p186
aV7.30
p187
aV14.69
p188
aV17.02
p189
aV33.83
p190
aV18.71
p191
aV19.47
p192
aV19.18
p193
aV25.77
p194
aV17.89
p195
aV13.12
p196
aV16.22
p197
aV16.25
p198
aV15.42
p199
aV15.63
p200
aV24.86
p201
aV6.29
p202
aV6.55
p203
aV41.04
p204
aV20.68
p205
aV25.77
p206
aV17.89
p207
aV16.59
p208
aV16.22
p209
aV11.14
p210
aV15.42
p211
aV15.63
p212
aV24.86
p213
aV35.90
p214
aV41.06
p215
aV53.74
p216
aV20.68
p217
aV7.37
p218
aV4.97
p219
aV9.32
p220
aV10.28
p221
aV11.91
p222
aV11.07
p223
aV15.18
p224
aV14.79
p225
aV5.42
p226
aV35.46
p227
aV0.00
p228
aV2.29
p229
aV0.00
p230
aV0.00
p231
aV0.00
p232
aV0.00
p233
aV0.00
p234
aV0.00
p235
aV0.00
p236
aV0.00
p237
aV0.00
p238
aV14.11
p239
aV13.42
p240
aV0.00
p241
aV0.00
p242
aV0.00
p243
aV0.00
p244
aV0.00
p245
aV0.00
p246
aV0.00
p247
aV0.00
p248
aV0.00
p249
aV0.00
p250
aV0.11
p251
aV0.00
p252
aV0.00
p253
aV0.00
p254
aV0.00
p255
aV0.00
p256
aV0.00
p257
aV0.00
p258
aV0.00
p259
aV0.00
p260
aV0.00
p261
aV0.00
p262
aV0.00
p263
aV0.00
p264
aV0.00
p265
aV0.00
p266
aV0.00
p267
aV0.00
p268
aV0.00
p269
aV0.00
p270
aV0.00
p271
aV0.00
p272
aV0.00
p273
aV0.00
p274
aV0.00
p275
aV0.00
p276
aV0.00
p277
aV0.00
p278
aV0.00
p279
aV0.00
p280
aV0.00
p281
aV0.00
p282
aV0.00
p283
aV0.00
p284
aV0.00
p285
aV0.00
p286
aV0.00
p287
aV0.00
p288
aV0.00
p289
aV0.00
p290
aV0.00
p291
aV0.00
p292
aV0.00
p293
aV0.00
p294
aV0.00
p295
aV0.00
p296
aV0.00
p297
aV0.00
p298
aV0.00
p299
aV0.00
p300
aV0.00
p301
aV0.00
p302
aV0.00
p303
aV0.00
p304
aV0.00
p305
aV0.00
p306
aV0.00
p307
aV0.00
p308
aV0.00
p309
aV0.00
p310
aV0.00
p311
aV0.00
p312
aV0.00
p313
aV0.47
p314
aV0.00
p315
aV0.00
p316
aV0.00
p317
aV0.00
p318
aV0.00
p319
aV0.00
p320
aV1.77
p321
aV8.28
p322
aV9.49
p323
aV54.22
p324
aV20.14
p325
aV0.00
p326
aV0.00
p327
aV0.00
p328
aV0.00
p329
aV0.00
p330
aV0.00
p331
aV0.00
p332
aV0.00
p333
aV43.95
p334
aV61.98
p335
aV16.98
p336
aV16.88
p337
aV0.00
p338
aV0.00
p339
aV0.00
p340
aV0.00
p341
aV0.00
p342
aV0.00
p343
aV0.00
p344
aV4.79
p345
aV42.38
p346
aV18.39
p347
aV17.29
p348
aV16.56
p349
aV2.43
p350
aV4.78
p351
aV6.47
p352
aV0.00
p353
aV0.06
p354
aV0.00
p355
aV13.49
p356
aV11.20
p357
aV16.43
p358
aV17.02
p359
aV18.42
p360
aV4.49
p361
aV25.77
p362
aV17.89
p363
aV7.98
p364
aV0.00
p365
aV0.00
p366
aV12.45
p367
aV14.68
p368
aV11.20
p369
aV4.00
p370
aV5.15
p371
aV17.83
p372
aV20.68
p373
aV19.80
p374
aV15.27
p375
aV7.98
p376
aV2.54
p377
aV8.53
p378
aV12.45
p379
aV14.50
p380
aV11.20
p381
aV4.07
p382
aV33.49
p383
aV6.09
p384
aV5.20
p385
aV17.08
p386
aV15.57
p387
aV14.84
p388
aV14.72
p389
aV22.69
p390
aV14.75
p391
aV14.68
p392
aV15.15
p393
aV28.12
p394
aV18.90
p395
aV34.06
p396
aV20.68
p397
aV17.37
p398
aV17.89
p399
aV16.59
p400
aV16.22
p401
aV22.69
p402
aV14.75
p403
aV14.68
p404
aV24.86
p405
aV4.42
p406
aV5.01
p407
aV6.39
p408
aV17.78
p409
aV4.71
p410
aV17.89
p411
aV10.68
p412
aV16.22
p413
aV1.81
p414
aV14.75
p415
aV15.63
p416
aV24.86
p417
aV33.61
p418
aV34.63
p419
aVjanuary
p420
aVfebruary
p421
aVmarch
p422
aVapril
p423
aVmay
p424
aVjune
p425
aVjuly
p426
aVaugust
p427
aVseptember
p428
aVoctober
p429
aVnovember
p430
aVdecember
p431
atp432
ba(lp433
g17
(g18
(dp434
g20
g21
(g22
(I0
tp435
g24
tp436
Rp437
(I1
(L25L
tp438
g31
I00
(lp439
I1
aI2
aI3
aI4
aI5
aI6
aI7
aI8
aI9
aI10
aI11
aI12
aI13
aI14
aI15
aI16
aI17
aI18
aI19
aI20
aI21
aI22
aI23
aI24
ag113
atp440
bsg43
Nstp441
Rp442
a(dp443
g86
(dp444
g88
g106
sg89
(lp445
(dp446
g92
g93
(I0
I25
L1L
tp447
Rp448
sg96
g129
sasstp449
bsbsS'weekend'
p450
g2
(g3
g4
Ntp451
Rp452
(dp453
g8
g9
sg10
g11
sg12
g2
(g13
g4
Ntp454
Rp455
((lp456
g17
(g18
(dp457
g20
g21
(g22
(I0
tp458
g24
tp459
Rp460
(I1
(L25L
tp461
g31
I00
(lp462
I1
aI2
aI3
aI4
aI5
aI6
aI7
aI8
aI9
aI10
aI11
aI12
aI13
aI14
aI15
aI16
aI17
aI18
aI19
aI20
aI21
aI22
aI23
aI24
ag113
atp463
bsg43
Nstp464
Rp465
ag17
(g46
(dp466
g20
g21
(g22
(I0
tp467
g24
tp468
Rp469
(I1
(L12L
tp470
g54
I00
S'\x00\x00\x00\x00\x00\x00\x00\x00\x01\x00\x00\x00\x00\x00\x00\x00\x02\x00\x00\x00\x00\x00\x00\x00\x03\x00\x00\x00\x00\x00\x00\x00\x04\x00\x00\x00\x00\x00\x00\x00\x05\x00\x00\x00\x00\x00\x00\x00\x06\x00\x00\x00\x00\x00\x00\x00\x07\x00\x00\x00\x00\x00\x00\x00\x08\x00\x00\x00\x00\x00\x00\x00\t\x00\x00\x00\x00\x00\x00\x00\n\x00\x00\x00\x00\x00\x00\x00\x0b\x00\x00\x00\x00\x00\x00\x00'
p471
tp472
bsg43
Nstp473
Rp474
a(lp475
g21
(g22
(I0
tp476
g24
tp477
Rp478
(I1
(L25L
L12L
tp479
g31
I00
(lp480
V6.80
p481
aV20.68
p482
aV19.07
p483
aV12.19
p484
aV16.59
p485
aV16.22
p486
aV15.42
p487
aV15.42
p488
aV15.42
p489
aV16.53
p490
aV18.47
p491
aV31.13
p492
aV35.60
p493
aV20.68
p494
aV6.63
p495
aV17.79
p496
aV3.35
p497
aV16.22
p498
aV18.91
p499
aV2.54
p500
aV15.42
p501
aV6.72
p502
aV18.47
p503
aV20.41
p504
aV19.85
p505
aV7.37
p506
aV25.77
p507
aV17.89
p508
aV16.59
p509
aV15.67
p510
aV15.42
p511
aV15.42
p512
aV2.54
p513
aV24.86
p514
aV18.71
p515
aV20.27
p516
aV7.03
p517
aV20.68
p518
aV14.88
p519
aV5.33
p520
aV16.59
p521
aV2.92
p522
aV22.69
p523
aV15.42
p524
aV15.42
p525
aV24.86
p526
aV18.64
p527
aV7.81
p528
aV20.04
p529
aV7.63
p530
aV25.77
p531
aV17.89
p532
aV16.59
p533
aV11.32
p534
aV0.00
p535
aV15.42
p536
aV15.50
p537
aV4.69
p538
aV18.96
p539
aV36.47
p540
aV20.04
p541
aV20.64
p542
aV20.12
p543
aV12.66
p544
aV0.00
p545
aV6.76
p546
aV6.49
p547
aV7.98
p548
aV12.74
p549
aV17.85
p550
aV18.75
p551
aV8.03
p552
aV20.15
p553
aV19.64
p554
aV7.46
p555
aV1.61
p556
aV0.00
p557
aV0.00
p558
aV0.00
p559
aV0.00
p560
aV3.11
p561
aV9.99
p562
aV18.37
p563
aV20.76
p564
aV16.43
p565
aV0.99
p566
aV0.00
p567
aV0.00
p568
aV0.00
p569
aV0.00
p570
aV0.00
p571
aV0.00
p572
aV0.00
p573
aV0.00
p574
aV0.00
p575
aV15.56
p576
aV0.00
p577
aV0.00
p578
aV0.00
p579
aV0.00
p580
aV0.00
p581
aV0.00
p582
aV0.00
p583
aV0.00
p584
aV0.00
p585
aV0.00
p586
aV0.00
p587
aV0.00
p588
aV0.00
p589
aV0.00
p590
aV0.00
p591
aV0.00
p592
aV0.00
p593
aV0.00
p594
aV0.00
p595
aV0.00
p596
aV0.00
p597
aV0.00
p598
aV0.00
p599
aV0.00
p600
aV0.00
p601
aV0.00
p602
aV0.00
p603
aV0.00
p604
aV0.00
p605
aV0.00
p606
aV0.00
p607
aV0.00
p608
aV0.00
p609
aV0.00
p610
aV0.00
p611
aV0.00
p612
aV0.00
p613
aV0.00
p614
aV0.00
p615
aV0.00
p616
aV0.00
p617
aV0.00
p618
aV0.00
p619
aV0.00
p620
aV0.00
p621
aV0.00
p622
aV0.00
p623
aV0.00
p624
aV0.00
p625
aV0.00
p626
aV0.00
p627
aV0.00
p628
aV0.00
p629
aV0.00
p630
aV0.00
p631
aV0.00
p632
aV0.00
p633
aV0.00
p634
aV0.00
p635
aV0.00
p636
aV0.00
p637
aV0.00
p638
aV0.00
p639
aV0.00
p640
aV0.00
p641
aV0.00
p642
aV0.00
p643
aV0.00
p644
aV0.00
p645
aV0.00
p646
aV0.00
p647
aV0.00
p648
aV0.00
p649
aV0.00
p650
aV0.00
p651
aV0.00
p652
aV0.00
p653
aV0.00
p654
aV0.00
p655
aV0.00
p656
aV0.00
p657
aV0.00
p658
aV0.00
p659
aV0.00
p660
aV0.00
p661
aV0.00
p662
aV0.00
p663
aV0.00
p664
aV0.00
p665
aV0.00
p666
aV0.00
p667
aV0.00
p668
aV0.00
p669
aV0.00
p670
aV0.00
p671
aV0.00
p672
aV0.00
p673
aV0.00
p674
aV0.00
p675
aV0.00
p676
aV0.00
p677
aV0.00
p678
aV0.00
p679
aV0.00
p680
aV0.00
p681
aV0.00
p682
aV0.00
p683
aV13.69
p684
aV4.93
p685
aV1.83
p686
aV1.34
p687
aV0.00
p688
aV0.00
p689
aV0.00
p690
aV0.00
p691
aV0.00
p692
aV0.00
p693
aV5.70
p694
aV26.14
p695
aV18.19
p696
aV35.01
p697
aV20.68
p698
aV10.67
p699
aV0.00
p700
aV6.98
p701
aV0.00
p702
aV1.36
p703
aV8.58
p704
aV14.58
p705
aV24.86
p706
aV4.78
p707
aV19.25
p708
aV5.65
p709
aV20.68
p710
aV17.63
p711
aV16.57
p712
aV14.92
p713
aV11.75
p714
aV0.28
p715
aV15.42
p716
aV15.42
p717
aV3.06
p718
aV17.73
p719
aV19.07
p720
aV6.79
p721
aV19.25
p722
aV25.77
p723
aV16.59
p724
aV14.61
p725
aV9.66
p726
aV2.54
p727
aV11.53
p728
aV14.73
p729
aV3.25
p730
aV14.18
p731
aV19.92
p732
aV34.69
p733
aV18.98
p734
aV18.22
p735
aV17.18
p736
aV3.17
p737
aV2.54
p738
aV15.42
p739
aV15.42
p740
aV15.63
p741
aV16.39
p742
aV18.11
p743
aV6.67
p744
aV7.05
p745
aV19.85
p746
aV14.32
p747
aV17.25
p748
aV16.15
p749
aV15.42
p750
aV15.42
p751
aV2.54
p752
aV15.42
p753
aV16.75
p754
aV5.68
p755
aV20.24
p756
aV34.85
p757
aV20.68
p758
aV5.64
p759
aV17.89
p760
aV16.41
p761
aV16.22
p762
aV15.42
p763
aV15.42
p764
aV2.54
p765
aV24.86
p766
aV18.28
p767
aV6.92
p768
aVjanuary
p769
aVfebruary
p770
aVmarch
p771
aVapril
p772
aVmay
p773
aVjune
p774
aVjuly
p775
aVaugust
p776
aVseptember
p777
aVoctober
p778
aVnovember
p779
aVdecember
p780
atp781
ba(lp782
g17
(g18
(dp783
g20
g21
(g22
(I0
tp784
g24
tp785
Rp786
(I1
(L25L
tp787
g31
I00
(lp788
I1
aI2
aI3
aI4
aI5
aI6
aI7
aI8
aI9
aI10
aI11
aI12
aI13
aI14
aI15
aI16
aI17
aI18
aI19
aI20
aI21
aI22
aI23
aI24
ag113
atp789
bsg43
Nstp790
Rp791
a(dp792
g86
(dp793
g88
g456
sg89
(lp794
(dp795
g92
g93
(I0
I25
L1L
tp796
Rp797
sg96
g478
sasstp798
bsbsS'peak'
p799
g2
(g3
g4
Ntp800
Rp801
(dp802
g8
g9
sg10
g11
sg12
g2
(g13
g4
Ntp803
Rp804
((lp805
g17
(g18
(dp806
g20
g21
(g22
(I0
tp807
g24
tp808
Rp809
(I1
(L25L
tp810
g31
I00
(lp811
I1
aI2
aI3
aI4
aI5
aI6
aI7
aI8
aI9
aI10
aI11
aI12
aI13
aI14
aI15
aI16
aI17
aI18
aI19
aI20
aI21
aI22
aI23
aI24
ag113
atp812
bsg43
Nstp813
Rp814
ag17
(g46
(dp815
g20
g21
(g22
(I0
tp816
g24
tp817
Rp818
(I1
(L12L
tp819
g54
I00
S'\x00\x00\x00\x00\x00\x00\x00\x00\x01\x00\x00\x00\x00\x00\x00\x00\x02\x00\x00\x00\x00\x00\x00\x00\x03\x00\x00\x00\x00\x00\x00\x00\x04\x00\x00\x00\x00\x00\x00\x00\x05\x00\x00\x00\x00\x00\x00\x00\x06\x00\x00\x00\x00\x00\x00\x00\x07\x00\x00\x00\x00\x00\x00\x00\x08\x00\x00\x00\x00\x00\x00\x00\t\x00\x00\x00\x00\x00\x00\x00\n\x00\x00\x00\x00\x00\x00\x00\x0b\x00\x00\x00\x00\x00\x00\x00'
p820
tp821
bsg43
Nstp822
Rp823
a(lp824
g21
(g22
(I0
tp825
g24
tp826
Rp827
(I1
(L25L
L12L
tp828
g31
I00
(lp829
V21.21
p830
aV20.68
p831
aV25.77
p832
aV17.89
p833
aV16.59
p834
aV16.22
p835
aV17.45
p836
aV15.42
p837
aV15.63
p838
aV19.09
p839
aV36.40
p840
aV37.65
p841
aV22.87
p842
aV20.68
p843
aV20.55
p844
aV17.89
p845
aV16.59
p846
aV16.22
p847
aV22.69
p848
aV15.42
p849
aV15.63
p850
aV19.51
p851
aV7.60
p852
aV21.29
p853
aV21.74
p854
aV20.68
p855
aV8.94
p856
aV17.89
p857
aV16.59
p858
aV16.22
p859
aV15.42
p860
aV15.42
p861
aV15.63
p862
aV19.47
p863
aV36.44
p864
aV22.27
p865
aV23.29
p866
aV20.68
p867
aV25.77
p868
aV17.89
p869
aV16.59
p870
aV16.22
p871
aV15.42
p872
aV15.42
p873
aV15.63
p874
aV20.05
p875
aV25.84
p876
aV21.85
p877
aV21.84
p878
aV20.68
p879
aV21.67
p880
aV17.89
p881
aV16.59
p882
aV16.22
p883
aV22.69
p884
aV15.42
p885
aV15.63
p886
aV24.86
p887
aV36.50
p888
aV38.48
p889
aV23.26
p890
aV20.68
p891
aV25.77
p892
aV17.89
p893
aV16.59
p894
aV16.22
p895
aV22.69
p896
aV15.42
p897
aV15.63
p898
aV24.86
p899
aV13.67
p900
aV22.33
p901
aV35.54
p902
aV20.68
p903
aV25.77
p904
aV17.89
p905
aV16.59
p906
aV16.22
p907
aV22.69
p908
aV15.42
p909
aV15.63
p910
aV24.86
p911
aV29.70
p912
aV13.87
p913
aV54.22
p914
aV20.68
p915
aV25.77
p916
aV17.89
p917
aV14.06
p918
aV12.92
p919
aV22.69
p920
aV13.60
p921
aV15.63
p922
aV19.63
p923
aV34.61
p924
aV40.20
p925
aV33.02
p926
aV7.71
p927
aV15.55
p928
aV9.35
p929
aV0.80
p930
aV0.93
p931
aV8.53
p932
aV1.37
p933
aV4.05
p934
aV9.37
p935
aV25.12
p936
aV6.24
p937
aV6.65
p938
aV0.00
p939
aV0.00
p940
aV0.00
p941
aV0.00
p942
aV0.00
p943
aV0.00
p944
aV0.00
p945
aV0.00
p946
aV0.00
p947
aV8.85
p948
aV19.26
p949
aV9.11
p950
aV0.00
p951
aV0.00
p952
aV0.00
p953
aV0.00
p954
aV0.00
p955
aV0.00
p956
aV0.00
p957
aV0.00
p958
aV0.00
p959
aV0.00
p960
aV1.47
p961
aV0.00
p962
aV0.00
p963
aV0.00
p964
aV0.00
p965
aV0.00
p966
aV0.00
p967
aV0.00
p968
aV0.00
p969
aV0.00
p970
aV0.00
p971
aV0.00
p972
aV0.00
p973
aV0.00
p974
aV0.00
p975
aV0.00
p976
aV0.00
p977
aV0.00
p978
aV0.00
p979
aV4.05
p980
aV0.00
p981
aV0.00
p982
aV0.00
p983
aV0.00
p984
aV3.88
p985
aV0.00
p986
aV0.00
p987
aV0.00
p988
aV0.00
p989
aV0.00
p990
aV0.00
p991
aV12.57
p992
aV2.49
p993
aV0.00
p994
aV0.00
p995
aV0.00
p996
aV0.00
p997
aV1.98
p998
aV0.00
p999
aV0.00
p1000
aV0.00
p1001
aV0.00
p1002
aV0.00
p1003
aV18.99
p1004
aV6.95
p1005
aV8.62
p1006
aV0.00
p1007
aV0.00
p1008
aV0.00
p1009
aV0.00
p1010
aV0.00
p1011
aV0.00
p1012
aV0.00
p1013
aV0.00
p1014
aV1.80
p1015
aV22.69
p1016
aV9.50
p1017
aV9.14
p1018
aV8.31
p1019
aV14.36
p1020
aV15.74
p1021
aV54.22
p1022
aV20.68
p1023
aV25.77
p1024
aV0.00
p1025
aV0.00
p1026
aV0.00
p1027
aV0.89
p1028
aV4.55
p1029
aV4.84
p1030
aV8.31
p1031
aV58.93
p1032
aV61.98
p1033
aV33.93
p1034
aV20.68
p1035
aV25.77
p1036
aV0.00
p1037
aV0.00
p1038
aV0.00
p1039
aV17.67
p1040
aV0.00
p1041
aV9.14
p1042
aV8.31
p1043
aV32.09
p1044
aV33.78
p1045
aV19.84
p1046
aV20.68
p1047
aV17.75
p1048
aV13.19
p1049
aV7.98
p1050
aV0.00
p1051
aV8.53
p1052
aV12.45
p1053
aV14.68
p1054
aV11.20
p1055
aV33.94
p1056
aV32.85
p1057
aV21.28
p1058
aV20.68
p1059
aV25.77
p1060
aV17.87
p1061
aV7.98
p1062
aV2.54
p1063
aV8.53
p1064
aV12.45
p1065
aV14.68
p1066
aV11.20
p1067
aV15.07
p1068
aV9.05
p1069
aV20.18
p1070
aV20.68
p1071
aV19.37
p1072
aV17.89
p1073
aV7.98
p1074
aV2.54
p1075
aV8.53
p1076
aV12.45
p1077
aV14.68
p1078
aV11.20
p1079
aV5.71
p1080
aV20.93
p1081
aV21.54
p1082
aV20.68
p1083
aV7.03
p1084
aV17.89
p1085
aV16.59
p1086
aV16.22
p1087
aV16.00
p1088
aV15.42
p1089
aV15.63
p1090
aV17.72
p1091
aV6.97
p1092
aV28.15
p1093
aV20.64
p1094
aV20.68
p1095
aV25.77
p1096
aV17.89
p1097
aV16.59
p1098
aV16.22
p1099
aV15.58
p1100
aV15.42
p1101
aV15.63
p1102
aV24.86
p1103
aV19.25
p1104
aV21.42
p1105
aV22.14
p1106
aV20.68
p1107
aV20.49
p1108
aV17.89
p1109
aV16.59
p1110
aV16.22
p1111
aV15.43
p1112
aV15.42
p1113
aV15.63
p1114
aV24.86
p1115
aV20.34
p1116
aV23.05
p1117
aVjanuary
p1118
aVfebruary
p1119
aVmarch
p1120
aVapril
p1121
aVmay
p1122
aVjune
p1123
aVjuly
p1124
aVaugust
p1125
aVseptember
p1126
aVoctober
p1127
aVnovember
p1128
aVdecember
p1129
atp1130
ba(lp1131
g17
(g18
(dp1132
g20
g21
(g22
(I0
tp1133
g24
tp1134
Rp1135
(I1
(L25L
tp1136
g31
I00
(lp1137
I1
aI2
aI3
aI4
aI5
aI6
aI7
aI8
aI9
aI10
aI11
aI12
aI13
aI14
aI15
aI16
aI17
aI18
aI19
aI20
aI21
aI22
aI23
aI24
ag113
atp1138
bsg43
Nstp1139
Rp1140
a(dp1141
g86
(dp1142
g88
g805
sg89
(lp1143
(dp1144
g92
g93
(I0
I25
L1L
tp1145
Rp1146
sg96
g827
sasstp1147
bsbssS'doc'
p1148
(lp1149
(dp1150
S'type'
p1151
S'value'
p1152
sg43
S'OPEX_saving'
p1153
sS'id'
p1154
S'Saving (%)'
p1155
sa(dp1156
g1151
S'table'
p1157
sg43
g1
sg1154
S'1.1.2.1 Renewables (PV and Solar Thermal)'
p1158
sa(dp1159
g1151
g1157
sg43
S'energy_storage_new_capacity'
p1160
sg1154
S'++++++ 1.2 Energy Storage'
p1161
sa(dp1162
g1151
S'timeserie'
p1163
sg43
S'hourly_pv_self_consumpt'
p1164
sg1154
S'*** Hourly PV output for self consumption'
p1165
sa(dp1166
g1151
g1163
sg43
S'hourly_pv_export'
p1167
sg1154
S'*** Hourly PV output for export '
p1168
sa(dp1169
g1151
g1163
sg43
S'elec_stored_stationnary_batteries'
p1170
sg1154
S'*** Electricity stored in Stationary Batteries (kWh)'
p1171
sa(dp1172
g1151
g1163
sg43
S'elec_for_stationnary_battery_charging_before_eff'
p1173
sg1154
S'Electricity for Stationary Battery charging (before charging efficiency) (kW)'
p1174
sa(dp1175
g1151
g1163
sg43
S'elec_provided_by_stationnary_battery_charging_after_eff'
p1176
sg1154
S'*** Electricity Provided by the Stationary Battery (after discharging efficiency) (kW)'
p1177
sa(dp1178
g1151
g1163
sg43
g98
sg1154
S'*** Hourly purchase from electric utility (kW)'
p1179
sasg1170
(dp1180
g100
g2
(g3
g4
Ntp1181
Rp1182
(dp1183
g8
g9
sg10
g11
sg12
g2
(g13
g4
Ntp1184
Rp1185
((lp1186
g17
(g18
(dp1187
g20
g21
(g22
(I0
tp1188
g24
tp1189
Rp1190
(I1
(L25L
tp1191
g31
I00
(lp1192
I1
aI2
aI3
aI4
aI5
aI6
aI7
aI8
aI9
aI10
aI11
aI12
aI13
aI14
aI15
aI16
aI17
aI18
aI19
aI20
aI21
aI22
aI23
aI24
ag113
atp1193
bsg43
Nstp1194
Rp1195
ag17
(g46
(dp1196
g20
g21
(g22
(I0
tp1197
g24
tp1198
Rp1199
(I1
(L12L
tp1200
g54
I00
S'\x00\x00\x00\x00\x00\x00\x00\x00\x01\x00\x00\x00\x00\x00\x00\x00\x02\x00\x00\x00\x00\x00\x00\x00\x03\x00\x00\x00\x00\x00\x00\x00\x04\x00\x00\x00\x00\x00\x00\x00\x05\x00\x00\x00\x00\x00\x00\x00\x06\x00\x00\x00\x00\x00\x00\x00\x07\x00\x00\x00\x00\x00\x00\x00\x08\x00\x00\x00\x00\x00\x00\x00\t\x00\x00\x00\x00\x00\x00\x00\n\x00\x00\x00\x00\x00\x00\x00\x0b\x00\x00\x00\x00\x00\x00\x00'
p1201
tp1202
bsg43
Nstp1203
Rp1204
a(lp1205
g21
(g22
(I0
tp1206
g24
tp1207
Rp1208
(I1
(L25L
L12L
tp1209
g31
I00
(lp1210
V14.39
p1211
aV17.66
p1212
aV31.93
p1213
aV42.36
p1214
aV15.49
p1215
aV24.58
p1216
aV34.36
p1217
aV32.66
p1218
aV46.50
p1219
aV31.05
p1220
aV42.86
p1221
aV43.17
p1222
aV14.37
p1223
aV17.64
p1224
aV31.90
p1225
aV43.41
p1226
aV15.48
p1227
aV14.40
p1228
aV34.32
p1229
aV32.63
p1230
aV32.15
p1231
aV31.02
p1232
aV47.67
p1233
aV28.82
p1234
aV14.36
p1235
aV17.62
p1236
aV31.87
p1237
aV44.29
p1238
aV16.05
p1239
aV14.39
p1240
aV28.63
p1241
aV33.20
p1242
aV32.12
p1243
aV38.39
p1244
aV47.63
p1245
aV28.79
p1246
aV28.65
p1247
aV17.61
p1248
aV31.84
p1249
aV44.24
p1250
aV16.04
p1251
aV14.37
p1252
aV14.30
p1253
aV33.17
p1254
aV32.09
p1255
aV26.32
p1256
aV33.28
p1257
aV28.76
p1258
aV14.32
p1259
aV19.03
p1260
aV38.58
p1261
aV44.78
p1262
aV16.02
p1263
aV19.51
p1264
aV23.99
p1265
aV24.85
p1266
aV32.05
p1267
aV26.30
p1268
aV47.55
p1269
aV28.73
p1270
aV14.30
p1271
aV19.01
p1272
aV41.41
p1273
aV42.50
p1274
aV16.01
p1275
aV18.82
p1276
aV23.96
p1277
aV21.65
p1278
aV24.95
p1279
aV26.16
p1280
aV33.20
p1281
aV14.40
p1282
aV28.59
p1283
aV14.96
p1284
aV37.95
p1285
aV35.17
p1286
aV14.30
p1287
aV14.30
p1288
aV14.30
p1289
aV14.32
p1290
aV14.32
p1291
aV18.09
p1292
aV42.51
p1293
aV28.69
p1294
aV42.86
p1295
aV14.32
p1296
aV23.61
p1297
aV20.83
p1298
aV14.30
p1299
aV14.30
p1300
aV14.30
p1301
aV14.30
p1302
aV14.30
p1303
aV18.07
p1304
aV28.17
p1305
aV28.66
p1306
aV29.18
p1307
aV14.30
p1308
aV14.30
p1309
aV14.30
p1310
aV14.30
p1311
aV14.30
p1312
aV14.30
p1313
aV14.30
p1314
aV14.30
p1315
aV14.30
p1316
aV17.58
p1317
aV28.63
p1318
aV29.15
p1319
aV14.30
p1320
aV14.30
p1321
aV14.30
p1322
aV14.30
p1323
aV28.04
p1324
aV28.56
p1325
aV14.30
p1326
aV14.30
p1327
aV14.30
p1328
aV14.30
p1329
aV14.30
p1330
aV25.71
p1331
aV14.30
p1332
aV20.71
p1333
aV14.35
p1334
aV14.30
p1335
aV42.32
p1336
aV42.83
p1337
aV28.59
p1338
aV25.00
p1339
aV26.37
p1340
aV14.30
p1341
aV18.64
p1342
aV28.21
p1343
aV14.30
p1344
aV20.69
p1345
aV14.33
p1346
aV14.30
p1347
aV42.28
p1348
aV42.79
p1349
aV42.86
p1350
aV39.28
p1351
aV26.35
p1352
aV28.59
p1353
aV26.03
p1354
aV35.01
p1355
aV14.30
p1356
aV34.97
p1357
aV14.32
p1358
aV14.32
p1359
aV47.67
p1360
aV47.67
p1361
aV42.82
p1362
aV39.24
p1363
aV26.32
p1364
aV42.86
p1365
aV27.55
p1366
aV43.27
p1367
aV23.51
p1368
aV47.67
p1369
aV14.30
p1370
aV14.30
p1371
aV47.25
p1372
aV47.63
p1373
aV42.78
p1374
aV39.20
p1375
aV40.60
p1376
aV42.82
p1377
aV36.71
p1378
aV46.80
p1379
aV37.79
p1380
aV47.67
p1381
aV24.03
p1382
aV26.26
p1383
aV32.90
p1384
aV38.10
p1385
aV33.79
p1386
aV42.72
p1387
aV47.67
p1388
aV47.67
p1389
aV47.67
p1390
aV47.67
p1391
aV47.67
p1392
aV41.49
p1393
aV22.38
p1394
aV21.99
p1395
aV18.57
p1396
aV23.76
p1397
aV23.71
p1398
aV33.41
p1399
aV33.32
p1400
aV47.63
p1401
aV47.63
p1402
aV42.99
p1403
aV47.63
p1404
aV47.67
p1405
aV36.66
p1406
aV36.27
p1407
aV32.85
p1408
aV38.04
p1409
aV37.98
p1410
aV47.67
p1411
aV34.61
p1412
aV33.28
p1413
aV40.87
p1414
aV28.86
p1415
aV40.21
p1416
aV42.36
p1417
aV47.67
p1418
aV47.67
p1419
aV45.24
p1420
aV47.67
p1421
aV47.67
p1422
aV45.31
p1423
aV26.41
p1424
aV47.55
p1425
aV28.66
p1426
aV28.83
p1427
aV40.17
p1428
aV28.02
p1429
aV41.84
p1430
aV47.63
p1431
aV47.67
p1432
aV47.67
p1433
aV37.21
p1434
aV45.27
p1435
aV22.48
p1436
aV47.67
p1437
aV28.63
p1438
aV28.81
p1439
aV25.83
p1440
aV36.46
p1441
aV44.45
p1442
aV40.99
p1443
aV35.56
p1444
aV34.07
p1445
aV34.77
p1446
aV45.22
p1447
aV18.48
p1448
aV33.32
p1449
aV14.30
p1450
aV28.78
p1451
aV28.63
p1452
aV39.16
p1453
aV44.41
p1454
aV33.38
p1455
aV22.00
p1456
aV27.16
p1457
aV32.19
p1458
aV44.97
p1459
aV14.32
p1460
aV18.99
p1461
aV28.59
p1462
aV14.45
p1463
aV14.30
p1464
aV39.12
p1465
aV44.36
p1466
aV33.35
p1467
aV21.98
p1468
aV34.34
p1469
aV32.15
p1470
aV44.93
p1471
aV14.30
p1472
aV28.63
p1473
aV28.94
p1474
aV28.73
p1475
aV16.61
p1476
aV39.08
p1477
aV46.16
p1478
aV34.80
p1479
aV23.30
p1480
aV41.52
p1481
aV32.12
p1482
aV44.88
p1483
aV22.84
p1484
aV14.30
p1485
aV14.60
p1486
aV14.40
p1487
aV15.74
p1488
aV24.74
p1489
aV47.67
p1490
aV29.83
p1491
aV24.61
p1492
aV27.17
p1493
aV32.09
p1494
aV45.69
p1495
aV31.09
p1496
aV28.59
p1497
aV28.89
p1498
aVjanuary
p1499
aVfebruary
p1500
aVmarch
p1501
aVapril
p1502
aVmay
p1503
aVjune
p1504
aVjuly
p1505
aVaugust
p1506
aVseptember
p1507
aVoctober
p1508
aVnovember
p1509
aVdecember
p1510
atp1511
ba(lp1512
g17
(g18
(dp1513
g20
g21
(g22
(I0
tp1514
g24
tp1515
Rp1516
(I1
(L25L
tp1517
g31
I00
(lp1518
I1
aI2
aI3
aI4
aI5
aI6
aI7
aI8
aI9
aI10
aI11
aI12
aI13
aI14
aI15
aI16
aI17
aI18
aI19
aI20
aI21
aI22
aI23
aI24
ag113
atp1519
bsg43
Nstp1520
Rp1521
a(dp1522
g86
(dp1523
g88
g1186
sg89
(lp1524
(dp1525
g92
g93
(I0
I25
L1L
tp1526
Rp1527
sg96
g1208
sasstp1528
bsbsg450
g2
(g3
g4
Ntp1529
Rp1530
(dp1531
g8
g9
sg10
g11
sg12
g2
(g13
g4
Ntp1532
Rp1533
((lp1534
g17
(g18
(dp1535
g20
g21
(g22
(I0
tp1536
g24
tp1537
Rp1538
(I1
(L25L
tp1539
g31
I00
(lp1540
I1
aI2
aI3
aI4
aI5
aI6
aI7
aI8
aI9
aI10
aI11
aI12
aI13
aI14
aI15
aI16
aI17
aI18
aI19
aI20
aI21
aI22
aI23
aI24
ag113
atp1541
bsg43
Nstp1542
Rp1543
ag17
(g46
(dp1544
g20
g21
(g22
(I0
tp1545
g24
tp1546
Rp1547
(I1
(L12L
tp1548
g54
I00
S'\x00\x00\x00\x00\x00\x00\x00\x00\x01\x00\x00\x00\x00\x00\x00\x00\x02\x00\x00\x00\x00\x00\x00\x00\x03\x00\x00\x00\x00\x00\x00\x00\x04\x00\x00\x00\x00\x00\x00\x00\x05\x00\x00\x00\x00\x00\x00\x00\x06\x00\x00\x00\x00\x00\x00\x00\x07\x00\x00\x00\x00\x00\x00\x00\x08\x00\x00\x00\x00\x00\x00\x00\t\x00\x00\x00\x00\x00\x00\x00\n\x00\x00\x00\x00\x00\x00\x00\x0b\x00\x00\x00\x00\x00\x00\x00'
p1549
tp1550
bsg43
Nstp1551
Rp1552
a(lp1553
g21
(g22
(I0
tp1554
g24
tp1555
Rp1556
(I1
(L25L
L12L
tp1557
g31
I00
(lp1558
V14.39
p1559
aV42.32
p1560
aV28.63
p1561
aV29.39
p1562
aV32.02
p1563
aV28.16
p1564
aV18.87
p1565
aV28.69
p1566
aV28.68
p1567
aV26.06
p1568
aV14.30
p1569
aV28.73
p1570
aV28.68
p1571
aV42.80
p1572
aV14.30
p1573
aV29.36
p1574
aV17.69
p1575
aV28.66
p1576
aV21.99
p1577
aV14.36
p1578
aV28.65
p1579
aV14.82
p1580
aV14.33
p1581
aV28.70
p1582
aV28.65
p1583
aV28.45
p1584
aV19.95
p1585
aV29.22
p1586
aV17.47
p1587
aV28.63
p1588
aV21.97
p1589
aV14.35
p1590
aV14.32
p1591
aV21.87
p1592
aV14.32
p1593
aV28.68
p1594
aV14.32
p1595
aV28.68
p1596
aV14.30
p1597
aV14.89
p1598
aV17.34
p1599
aV14.30
p1600
aV28.50
p1601
aV14.33
p1602
aV14.30
p1603
aV28.65
p1604
aV14.30
p1605
aV14.35
p1606
aV14.35
p1607
aV14.35
p1608
aV19.61
p1609
aV14.32
p1610
aV19.30
p1611
aV14.30
p1612
aV14.32
p1613
aV14.32
p1614
aV14.33
p1615
aV14.32
p1616
aV14.33
p1617
aV28.63
p1618
aV14.33
p1619
aV14.33
p1620
aV19.59
p1621
aV14.30
p1622
aV14.30
p1623
aV14.30
p1624
aV14.30
p1625
aV14.30
p1626
aV14.32
p1627
aV14.30
p1628
aV14.32
p1629
aV14.30
p1630
aV14.32
p1631
aV14.32
p1632
aV14.30
p1633
aV14.30
p1634
aV14.40
p1635
aV14.30
p1636
aV16.92
p1637
aV14.30
p1638
aV14.30
p1639
aV14.30
p1640
aV14.30
p1641
aV14.32
p1642
aV14.30
p1643
aV14.30
p1644
aV14.30
p1645
aV14.30
p1646
aV14.39
p1647
aV14.30
p1648
aV16.90
p1649
aV14.30
p1650
aV14.30
p1651
aV14.30
p1652
aV14.30
p1653
aV14.30
p1654
aV14.30
p1655
aV14.30
p1656
aV14.30
p1657
aV14.32
p1658
aV14.37
p1659
aV14.30
p1660
aV16.89
p1661
aV14.32
p1662
aV14.30
p1663
aV14.30
p1664
aV14.30
p1665
aV14.30
p1666
aV14.30
p1667
aV14.36
p1668
aV14.30
p1669
aV14.30
p1670
aV14.36
p1671
aV14.30
p1672
aV16.87
p1673
aV14.30
p1674
aV19.22
p1675
aV14.33
p1676
aV14.33
p1677
aV14.30
p1678
aV14.30
p1679
aV14.35
p1680
aV14.30
p1681
aV14.35
p1682
aV14.35
p1683
aV17.11
p1684
aV16.85
p1685
aV14.32
p1686
aV19.20
p1687
aV14.32
p1688
aV14.32
p1689
aV14.30
p1690
aV14.30
p1691
aV14.33
p1692
aV19.18
p1693
aV14.33
p1694
aV14.33
p1695
aV17.09
p1696
aV16.84
p1697
aV14.30
p1698
aV19.18
p1699
aV14.30
p1700
aV14.30
p1701
aV14.30
p1702
aV19.14
p1703
aV14.32
p1704
aV19.16
p1705
aV14.32
p1706
aV14.32
p1707
aV17.07
p1708
aV16.82
p1709
aV14.33
p1710
aV19.16
p1711
aV14.30
p1712
aV19.14
p1713
aV14.30
p1714
aV19.12
p1715
aV14.30
p1716
aV19.14
p1717
aV14.30
p1718
aV14.30
p1719
aV17.06
p1720
aV16.80
p1721
aV14.32
p1722
aV19.14
p1723
aV19.12
p1724
aV19.12
p1725
aV19.12
p1726
aV33.41
p1727
aV19.12
p1728
aV19.12
p1729
aV14.30
p1730
aV19.12
p1731
aV17.04
p1732
aV16.79
p1733
aV14.30
p1734
aV19.12
p1735
aV33.41
p1736
aV33.41
p1737
aV33.41
p1738
aV47.67
p1739
aV33.41
p1740
aV33.41
p1741
aV20.95
p1742
aV33.41
p1743
aV31.32
p1744
aV31.07
p1745
aV28.59
p1746
aV33.41
p1747
aV47.67
p1748
aV47.67
p1749
aV47.67
p1750
aV43.22
p1751
aV47.67
p1752
aV47.67
p1753
aV35.23
p1754
aV47.67
p1755
aV45.60
p1756
aV45.34
p1757
aV42.86
p1758
aV47.67
p1759
aV47.67
p1760
aV39.41
p1761
aV47.67
p1762
aV28.88
p1763
aV36.48
p1764
aV47.63
p1765
aV47.67
p1766
aV47.67
p1767
aV45.55
p1768
aV47.67
p1769
aV47.67
p1770
aV43.83
p1771
aV39.48
p1772
aV47.67
p1773
aV47.63
p1774
aV43.15
p1775
aV38.63
p1776
aV40.82
p1777
aV35.37
p1778
aV47.63
p1779
aV47.67
p1780
aV47.63
p1781
aV47.67
p1782
aV43.79
p1783
aV47.67
p1784
aV33.32
p1785
aV47.58
p1786
aV28.81
p1787
aV40.73
p1788
aV40.78
p1789
aV35.33
p1790
aV47.58
p1791
aV47.67
p1792
aV33.28
p1793
aV47.50
p1794
aV43.75
p1795
aV33.32
p1796
aV33.29
p1797
aV47.53
p1798
aV14.47
p1799
aV40.68
p1800
aV47.67
p1801
aV35.30
p1802
aV46.13
p1803
aV41.23
p1804
aV18.94
p1805
aV43.14
p1806
aV42.94
p1807
aV18.99
p1808
aV28.69
p1809
aV47.48
p1810
aV28.76
p1811
aV40.64
p1812
aV47.63
p1813
aV35.26
p1814
aV31.78
p1815
aV26.89
p1816
aV18.92
p1817
aV43.09
p1818
aV43.09
p1819
aV18.97
p1820
aV28.66
p1821
aV33.13
p1822
aV14.43
p1823
aV40.60
p1824
aV43.01
p1825
aV35.23
p1826
aV31.75
p1827
aV26.86
p1828
aV18.90
p1829
aV28.75
p1830
aV43.05
p1831
aV18.95
p1832
aV14.33
p1833
aV33.10
p1834
aV28.72
p1835
aV41.71
p1836
aV28.66
p1837
aV35.40
p1838
aV31.71
p1839
aV27.56
p1840
aV18.88
p1841
aV28.72
p1842
aV28.70
p1843
aV26.09
p1844
aV14.32
p1845
aV18.77
p1846
aVjanuary
p1847
aVfebruary
p1848
aVmarch
p1849
aVapril
p1850
aVmay
p1851
aVjune
p1852
aVjuly
p1853
aVaugust
p1854
aVseptember
p1855
aVoctober
p1856
aVnovember
p1857
aVdecember
p1858
atp1859
ba(lp1860
g17
(g18
(dp1861
g20
g21
(g22
(I0
tp1862
g24
tp1863
Rp1864
(I1
(L25L
tp1865
g31
I00
(lp1866
I1
aI2
aI3
aI4
aI5
aI6
aI7
aI8
aI9
aI10
aI11
aI12
aI13
aI14
aI15
aI16
aI17
aI18
aI19
aI20
aI21
aI22
aI23
aI24
ag113
atp1867
bsg43
Nstp1868
Rp1869
a(dp1870
g86
(dp1871
g88
g1534
sg89
(lp1872
(dp1873
g92
g93
(I0
I25
L1L
tp1874
Rp1875
sg96
g1556
sasstp1876
bsbsg799
g2
(g3
g4
Ntp1877
Rp1878
(dp1879
g8
g9
sg10
g11
sg12
g2
(g13
g4
Ntp1880
Rp1881
((lp1882
g17
(g18
(dp1883
g20
g21
(g22
(I0
tp1884
g24
tp1885
Rp1886
(I1
(L25L
tp1887
g31
I00
(lp1888
I1
aI2
aI3
aI4
aI5
aI6
aI7
aI8
aI9
aI10
aI11
aI12
aI13
aI14
aI15
aI16
aI17
aI18
aI19
aI20
aI21
aI22
aI23
aI24
ag113
atp1889
bsg43
Nstp1890
Rp1891
ag17
(g46
(dp1892
g20
g21
(g22
(I0
tp1893
g24
tp1894
Rp1895
(I1
(L12L
tp1896
g54
I00
S'\x00\x00\x00\x00\x00\x00\x00\x00\x01\x00\x00\x00\x00\x00\x00\x00\x02\x00\x00\x00\x00\x00\x00\x00\x03\x00\x00\x00\x00\x00\x00\x00\x04\x00\x00\x00\x00\x00\x00\x00\x05\x00\x00\x00\x00\x00\x00\x00\x06\x00\x00\x00\x00\x00\x00\x00\x07\x00\x00\x00\x00\x00\x00\x00\x08\x00\x00\x00\x00\x00\x00\x00\t\x00\x00\x00\x00\x00\x00\x00\n\x00\x00\x00\x00\x00\x00\x00\x0b\x00\x00\x00\x00\x00\x00\x00'
p1897
tp1898
bsg43
Nstp1899
Rp1900
a(lp1901
g21
(g22
(I0
tp1902
g24
tp1903
Rp1904
(I1
(L25L
L12L
tp1905
g31
I00
(lp1906
V14.37
p1907
aV33.90
p1908
aV43.20
p1909
aV41.41
p1910
aV26.43
p1911
aV23.16
p1912
aV16.12
p1913
aV31.04
p1914
aV45.68
p1915
aV26.22
p1916
aV28.59
p1917
aV33.51
p1918
aV14.36
p1919
aV32.52
p1920
aV43.16
p1921
aV39.48
p1922
aV23.86
p1923
aV22.08
p1924
aV22.65
p1925
aV31.01
p1926
aV45.82
p1927
aV26.19
p1928
aV14.30
p1929
aV33.47
p1930
aV14.35
p1931
aV31.34
p1932
aV29.49
p1933
aV37.37
p1934
aV21.28
p1935
aV21.19
p1936
aV22.63
p1937
aV30.98
p1938
aV45.97
p1939
aV26.16
p1940
aV28.59
p1941
aV33.44
p1942
aV14.33
p1943
aV29.56
p1944
aV33.77
p1945
aV35.33
p1946
aV18.83
p1947
aV19.35
p1948
aV22.61
p1949
aV30.95
p1950
aV46.12
p1951
aV26.14
p1952
aV33.41
p1953
aV33.41
p1954
aV14.32
p1955
aV28.60
p1956
aV33.73
p1957
aV33.20
p1958
aV17.40
p1959
aV22.33
p1960
aV30.47
p1961
aV30.92
p1962
aV46.08
p1963
aV30.56
p1964
aV47.67
p1965
aV47.67
p1966
aV14.30
p1967
aV26.69
p1968
aV32.83
p1969
aV26.90
p1970
aV19.38
p1971
aV20.74
p1972
aV35.01
p1973
aV23.48
p1974
aV33.91
p1975
aV28.65
p1976
aV33.32
p1977
aV47.63
p1978
aV22.20
p1979
aV19.93
p1980
aV18.50
p1981
aV17.47
p1982
aV14.30
p1983
aV14.30
p1984
aV34.49
p1985
aV14.30
p1986
aV19.57
p1987
aV14.32
p1988
aV18.99
p1989
aV33.28
p1990
aV33.41
p1991
aV14.30
p1992
aV14.32
p1993
aV14.30
p1994
aV14.32
p1995
aV14.32
p1996
aV38.44
p1997
aV14.32
p1998
aV14.30
p1999
aV14.30
p2000
aV14.33
p2001
aV33.24
p2002
aV47.67
p2003
aV14.30
p2004
aV14.30
p2005
aV14.30
p2006
aV14.30
p2007
aV14.30
p2008
aV36.35
p2009
aV14.30
p2010
aV14.30
p2011
aV14.30
p2012
aV14.32
p2013
aV18.91
p2014
aV33.37
p2015
aV14.30
p2016
aV14.30
p2017
aV14.30
p2018
aV14.30
p2019
aV20.31
p2020
aV36.90
p2021
aV22.88
p2022
aV21.78
p2023
aV14.30
p2024
aV14.30
p2025
aV18.89
p2026
aV33.34
p2027
aV18.66
p2028
aV14.30
p2029
aV14.30
p2030
aV15.12
p2031
aV33.41
p2032
aV39.33
p2033
aV32.92
p2034
aV33.00
p2035
aV14.30
p2036
aV18.06
p2037
aV18.87
p2038
aV29.65
p2039
aV32.94
p2040
aV18.43
p2041
aV14.30
p2042
aV15.11
p2043
aV47.67
p2044
aV47.67
p2045
aV47.19
p2046
aV47.27
p2047
aV23.89
p2048
aV27.35
p2049
aV20.59
p2050
aV31.48
p2051
aV32.91
p2052
aV32.72
p2053
aV20.63
p2054
aV29.39
p2055
aV47.67
p2056
aV47.63
p2057
aV47.67
p2058
aV47.22
p2059
aV37.15
p2060
aV40.89
p2061
aV20.57
p2062
aV34.38
p2063
aV32.87
p2064
aV42.70
p2065
aV20.61
p2066
aV29.36
p2067
aV47.67
p2068
aV47.67
p2069
aV47.63
p2070
aV47.67
p2071
aV47.67
p2072
aV41.81
p2073
aV24.11
p2074
aV34.35
p2075
aV43.72
p2076
aV47.67
p2077
aV27.21
p2078
aV34.49
p2079
aV34.99
p2080
aV47.63
p2081
aV44.31
p2082
aV47.67
p2083
aV47.67
p2084
aV47.67
p2085
aV31.54
p2086
aV28.82
p2087
aV47.67
p2088
aV37.60
p2089
aV21.69
p2090
aV22.24
p2091
aV20.65
p2092
aV33.28
p2093
aV29.96
p2094
aV33.32
p2095
aV33.32
p2096
aV47.67
p2097
aV31.51
p2098
aV14.49
p2099
aV40.92
p2100
aV35.20
p2101
aV35.97
p2102
aV36.52
p2103
aV34.93
p2104
aV33.41
p2105
aV44.24
p2106
aV45.36
p2107
aV39.41
p2108
aV33.32
p2109
aV17.17
p2110
aV14.47
p2111
aV31.94
p2112
aV42.04
p2113
aV47.67
p2114
aV47.67
p2115
aV46.10
p2116
aV47.67
p2117
aV47.67
p2118
aV47.67
p2119
aV32.01
p2120
aV33.29
p2121
aV17.16
p2122
aV14.46
p2123
aV33.99
p2124
aV41.57
p2125
aV47.63
p2126
aV47.63
p2127
aV47.67
p2128
aV39.82
p2129
aV40.09
p2130
aV46.81
p2131
aV26.67
p2132
aV47.56
p2133
aV28.65
p2134
aV14.45
p2135
aV34.52
p2136
aV47.67
p2137
aV47.67
p2138
aV39.07
p2139
aV36.63
p2140
aV25.79
p2141
aV34.51
p2142
aV45.95
p2143
aV20.50
p2144
aV42.98
p2145
aV14.32
p2146
aV14.43
p2147
aV35.80
p2148
aV47.63
p2149
aV46.39
p2150
aV29.94
p2151
aV22.29
p2152
aV14.30
p2153
aV31.17
p2154
aV45.09
p2155
aV14.30
p2156
aV28.63
p2157
aV14.30
p2158
aV14.42
p2159
aV35.34
p2160
aV33.28
p2161
aV45.87
p2162
aV30.04
p2163
aV22.99
p2164
aV14.32
p2165
aV31.13
p2166
aV45.23
p2167
aV14.30
p2168
aV14.30
p2169
aV19.26
p2170
aV14.40
p2171
aV35.92
p2172
aV38.51
p2173
aV44.15
p2174
aV29.15
p2175
aV23.47
p2176
aV14.30
p2177
aV31.10
p2178
aV45.38
p2179
aV20.53
p2180
aV14.32
p2181
aV19.24
p2182
aV14.39
p2183
aV34.83
p2184
aV38.47
p2185
aV43.31
p2186
aV28.47
p2187
aV23.43
p2188
aV14.30
p2189
aV31.07
p2190
aV45.53
p2191
aV25.99
p2192
aV14.30
p2193
aV19.22
p2194
aVjanuary
p2195
aVfebruary
p2196
aVmarch
p2197
aVapril
p2198
aVmay
p2199
aVjune
p2200
aVjuly
p2201
aVaugust
p2202
aVseptember
p2203
aVoctober
p2204
aVnovember
p2205
aVdecember
p2206
atp2207
ba(lp2208
g17
(g18
(dp2209
g20
g21
(g22
(I0
tp2210
g24
tp2211
Rp2212
(I1
(L25L
tp2213
g31
I00
(lp2214
I1
aI2
aI3
aI4
aI5
aI6
aI7
aI8
aI9
aI10
aI11
aI12
aI13
aI14
aI15
aI16
aI17
aI18
aI19
aI20
aI21
aI22
aI23
aI24
ag113
atp2215
bsg43
Nstp2216
Rp2217
a(dp2218
g86
(dp2219
g88
g1882
sg89
(lp2220
(dp2221
g92
g93
(I0
I25
L1L
tp2222
Rp2223
sg96
g1904
sasstp2224
bsbssg1176
(dp2225
g100
g2
(g3
g4
Ntp2226
Rp2227
(dp2228
g8
g9
sg10
g11
sg12
g2
(g13
g4
Ntp2229
Rp2230
((lp2231
g17
(g18
(dp2232
g20
g21
(g22
(I0
tp2233
g24
tp2234
Rp2235
(I1
(L25L
tp2236
g31
I00
(lp2237
I1
aI2
aI3
aI4
aI5
aI6
aI7
aI8
aI9
aI10
aI11
aI12
aI13
aI14
aI15
aI16
aI17
aI18
aI19
aI20
aI21
aI22
aI23
aI24
ag113
atp2238
bsg43
Nstp2239
Rp2240
ag17
(g46
(dp2241
g20
g21
(g22
(I0
tp2242
g24
tp2243
Rp2244
(I1
(L12L
tp2245
g54
I00
S'\x00\x00\x00\x00\x00\x00\x00\x00\x01\x00\x00\x00\x00\x00\x00\x00\x02\x00\x00\x00\x00\x00\x00\x00\x03\x00\x00\x00\x00\x00\x00\x00\x04\x00\x00\x00\x00\x00\x00\x00\x05\x00\x00\x00\x00\x00\x00\x00\x06\x00\x00\x00\x00\x00\x00\x00\x07\x00\x00\x00\x00\x00\x00\x00\x08\x00\x00\x00\x00\x00\x00\x00\t\x00\x00\x00\x00\x00\x00\x00\n\x00\x00\x00\x00\x00\x00\x00\x0b\x00\x00\x00\x00\x00\x00\x00'
p2246
tp2247
bsg43
Nstp2248
Rp2249
a(lp2250
g21
(g22
(I0
tp2251
g24
tp2252
Rp2253
(I1
(L25L
L12L
tp2254
g31
I00
(lp2255
V0.00
p2256
aV0.00
p2257
aV0.00
p2258
aV4.74
p2259
aV12.87
p2260
aV0.00
p2261
aV0.00
p2262
aV0.00
p2263
aV0.00
p2264
aV0.00
p2265
aV0.00
p2266
aV0.00
p2267
aV0.00
p2268
aV0.00
p2269
aV0.00
p2270
aV0.00
p2271
aV0.00
p2272
aV9.14
p2273
aV0.00
p2274
aV0.00
p2275
aV12.87
p2276
aV0.00
p2277
aV0.00
p2278
aV12.87
p2279
aV0.00
p2280
aV0.00
p2281
aV0.00
p2282
aV0.00
p2283
aV0.00
p2284
aV0.00
p2285
aV5.09
p2286
aV0.00
p2287
aV0.00
p2288
aV0.00
p2289
aV0.00
p2290
aV0.00
p2291
aV0.00
p2292
aV0.00
p2293
aV0.00
p2294
aV0.00
p2295
aV0.00
p2296
aV0.00
p2297
aV12.87
p2298
aV0.00
p2299
aV0.00
p2300
aV10.82
p2301
aV12.87
p2302
aV0.00
p2303
aV12.87
p2304
aV0.00
p2305
aV0.00
p2306
aV0.00
p2307
aV0.00
p2308
aV0.00
p2309
aV0.00
p2310
aV7.45
p2311
aV0.00
p2312
aV0.00
p2313
aV0.00
p2314
aV0.00
p2315
aV0.00
p2316
aV0.00
p2317
aV0.00
p2318
aV2.01
p2319
aV0.00
p2320
aV0.61
p2321
aV0.00
p2322
aV2.86
p2323
aV6.36
p2324
aV0.10
p2325
aV12.87
p2326
aV12.87
p2327
aV0.00
p2328
aV3.63
p2329
aV3.07
p2330
aV6.56
p2331
aV1.52
p2332
aV4.05
p2333
aV8.67
p2334
aV6.58
p2335
aV9.55
p2336
aV7.24
p2337
aV0.00
p2338
aV0.00
p2339
aV0.00
p2340
aV0.57
p2341
aV12.87
p2342
aV12.87
p2343
aV0.00
p2344
aV0.00
p2345
aV0.00
p2346
aV0.00
p2347
aV0.00
p2348
aV0.00
p2349
aV12.87
p2350
aV0.00
p2351
aV12.28
p2352
aV0.00
p2353
aV8.36
p2354
aV5.86
p2355
aV0.00
p2356
aV0.00
p2357
aV0.00
p2358
aV0.00
p2359
aV0.00
p2360
aV3.37
p2361
aV9.50
p2362
aV0.00
p2363
aV0.00
p2364
aV0.00
p2365
aV0.00
p2366
aV0.00
p2367
aV0.00
p2368
aV0.00
p2369
aV0.00
p2370
aV0.00
p2371
aV0.00
p2372
aV0.00
p2373
aV2.94
p2374
aV12.87
p2375
aV3.07
p2376
aV0.00
p2377
aV0.00
p2378
aV0.00
p2379
aV0.00
p2380
aV0.00
p2381
aV0.00
p2382
aV0.00
p2383
aV0.00
p2384
aV0.00
p2385
aV0.00
p2386
aV0.00
p2387
aV0.00
p2388
aV0.00
p2389
aV0.00
p2390
aV0.00
p2391
aV0.00
p2392
aV0.00
p2393
aV0.00
p2394
aV0.00
p2395
aV0.00
p2396
aV0.00
p2397
aV0.00
p2398
aV0.00
p2399
aV0.00
p2400
aV0.00
p2401
aV0.00
p2402
aV0.00
p2403
aV0.00
p2404
aV0.00
p2405
aV0.00
p2406
aV0.00
p2407
aV0.00
p2408
aV0.00
p2409
aV0.00
p2410
aV0.00
p2411
aV0.00
p2412
aV0.00
p2413
aV0.00
p2414
aV0.00
p2415
aV0.00
p2416
aV0.34
p2417
aV0.00
p2418
aV0.00
p2419
aV0.00
p2420
aV0.00
p2421
aV0.00
p2422
aV0.00
p2423
aV0.00
p2424
aV0.00
p2425
aV0.00
p2426
aV0.00
p2427
aV0.00
p2428
aV12.87
p2429
aV8.53
p2430
aV8.05
p2431
aV0.00
p2432
aV0.00
p2433
aV0.00
p2434
aV0.00
p2435
aV0.00
p2436
aV0.00
p2437
aV5.52
p2438
aV1.46
p2439
aV3.83
p2440
aV12.87
p2441
aV12.87
p2442
aV9.04
p2443
aV8.34
p2444
aV12.87
p2445
aV0.00
p2446
aV0.00
p2447
aV4.17
p2448
aV0.00
p2449
aV0.00
p2450
aV0.00
p2451
aV0.00
p2452
aV0.00
p2453
aV0.00
p2454
aV0.00
p2455
aV0.00
p2456
aV0.00
p2457
aV12.87
p2458
aV6.04
p2459
aV12.68
p2460
aV6.63
p2461
aV4.74
p2462
aV0.00
p2463
aV0.00
p2464
aV0.00
p2465
aV0.00
p2466
aV0.00
p2467
aV2.08
p2468
aV7.35
p2469
aV0.00
p2470
aV10.95
p2471
aV0.00
p2472
aV0.00
p2473
aV12.87
p2474
aV5.21
p2475
aV0.00
p2476
aV0.00
p2477
aV0.00
p2478
aV9.38
p2479
aV0.00
p2480
aV3.51
p2481
aV0.00
p2482
aV0.00
p2483
aV0.00
p2484
aV12.87
p2485
aV0.00
p2486
aV0.00
p2487
aV5.93
p2488
aV10.86
p2489
aV12.20
p2490
aV2.16
p2491
aV0.00
p2492
aV3.58
p2493
aV12.87
p2494
aV12.87
p2495
aV0.00
p2496
aV0.00
p2497
aV0.00
p2498
aV0.00
p2499
aV6.81
p2500
aV12.17
p2501
aV6.19
p2502
aV2.29
p2503
aV0.19
p2504
aV3.73
p2505
aV12.87
p2506
aV0.00
p2507
aV12.87
p2508
aV12.87
p2509
aV0.00
p2510
aV0.00
p2511
aV0.00
p2512
aV0.00
p2513
aV0.00
p2514
aV0.00
p2515
aV0.00
p2516
aV0.00
p2517
aV0.00
p2518
aV0.00
p2519
aV0.00
p2520
aV0.00
p2521
aV0.00
p2522
aV0.00
p2523
aV0.00
p2524
aV0.00
p2525
aV0.00
p2526
aV0.00
p2527
aV0.00
p2528
aV0.00
p2529
aV12.87
p2530
aV12.87
p2531
aV12.87
p2532
aV0.77
p2533
aV12.87
p2534
aV0.00
p2535
aV4.45
p2536
aV0.00
p2537
aV12.87
p2538
aV0.00
p2539
aV0.00
p2540
aV0.00
p2541
aV0.00
p2542
aV0.00
p2543
aVjanuary
p2544
aVfebruary
p2545
aVmarch
p2546
aVapril
p2547
aVmay
p2548
aVjune
p2549
aVjuly
p2550
aVaugust
p2551
aVseptember
p2552
aVoctober
p2553
aVnovember
p2554
aVdecember
p2555
atp2556
ba(lp2557
g17
(g18
(dp2558
g20
g21
(g22
(I0
tp2559
g24
tp2560
Rp2561
(I1
(L25L
tp2562
g31
I00
(lp2563
I1
aI2
aI3
aI4
aI5
aI6
aI7
aI8
aI9
aI10
aI11
aI12
aI13
aI14
aI15
aI16
aI17
aI18
aI19
aI20
aI21
aI22
aI23
aI24
ag113
atp2564
bsg43
Nstp2565
Rp2566
a(dp2567
g86
(dp2568
g88
g2231
sg89
(lp2569
(dp2570
g92
g93
(I0
I25
L1L
tp2571
Rp2572
sg96
g2253
sasstp2573
bsbsg450
g2
(g3
g4
Ntp2574
Rp2575
(dp2576
g8
g9
sg10
g11
sg12
g2
(g13
g4
Ntp2577
Rp2578
((lp2579
g17
(g18
(dp2580
g20
g21
(g22
(I0
tp2581
g24
tp2582
Rp2583
(I1
(L25L
tp2584
g31
I00
(lp2585
I1
aI2
aI3
aI4
aI5
aI6
aI7
aI8
aI9
aI10
aI11
aI12
aI13
aI14
aI15
aI16
aI17
aI18
aI19
aI20
aI21
aI22
aI23
aI24
ag113
atp2586
bsg43
Nstp2587
Rp2588
ag17
(g46
(dp2589
g20
g21
(g22
(I0
tp2590
g24
tp2591
Rp2592
(I1
(L12L
tp2593
g54
I00
S'\x00\x00\x00\x00\x00\x00\x00\x00\x01\x00\x00\x00\x00\x00\x00\x00\x02\x00\x00\x00\x00\x00\x00\x00\x03\x00\x00\x00\x00\x00\x00\x00\x04\x00\x00\x00\x00\x00\x00\x00\x05\x00\x00\x00\x00\x00\x00\x00\x06\x00\x00\x00\x00\x00\x00\x00\x07\x00\x00\x00\x00\x00\x00\x00\x08\x00\x00\x00\x00\x00\x00\x00\t\x00\x00\x00\x00\x00\x00\x00\n\x00\x00\x00\x00\x00\x00\x00\x0b\x00\x00\x00\x00\x00\x00\x00'
p2594
tp2595
bsg43
Nstp2596
Rp2597
a(lp2598
g21
(g22
(I0
tp2599
g24
tp2600
Rp2601
(I1
(L25L
L12L
tp2602
g31
I00
(lp2603
V12.87
p2604
aV0.00
p2605
aV0.00
p2606
aV5.38
p2607
aV0.00
p2608
aV0.00
p2609
aV0.00
p2610
aV0.00
p2611
aV0.00
p2612
aV0.00
p2613
aV0.00
p2614
aV0.00
p2615
aV0.00
p2616
aV0.00
p2617
aV12.87
p2618
aV0.00
p2619
aV12.87
p2620
aV0.00
p2621
aV0.00
p2622
aV12.87
p2623
aV0.00
p2624
aV10.09
p2625
aV0.00
p2626
aV0.00
p2627
aV0.00
p2628
aV12.87
p2629
aV0.00
p2630
aV0.10
p2631
aV0.18
p2632
aV0.00
p2633
aV0.00
p2634
aV0.00
p2635
aV12.87
p2636
aV0.00
p2637
aV0.00
p2638
aV0.00
p2639
aV12.87
p2640
aV0.00
p2641
aV5.07
p2642
aV12.87
p2643
aV0.10
p2644
aV12.87
p2645
aV0.00
p2646
aV0.00
p2647
aV0.00
p2648
aV0.00
p2649
aV0.00
p2650
aV12.87
p2651
aV0.00
p2652
aV12.87
p2653
aV0.00
p2654
aV0.50
p2655
aV0.00
p2656
aV0.00
p2657
aV12.74
p2658
aV0.00
p2659
aV0.00
p2660
aV12.87
p2661
aV0.00
p2662
aV0.00
p2663
aV0.00
p2664
aV0.00
p2665
aV0.00
p2666
aV0.00
p2667
aV4.48
p2668
aV0.00
p2669
aV0.00
p2670
aV0.00
p2671
aV0.00
p2672
aV0.00
p2673
aV0.00
p2674
aV12.87
p2675
aV0.00
p2676
aV0.00
p2677
aV4.74
p2678
aV0.00
p2679
aV0.00
p2680
aV0.00
p2681
aV0.00
p2682
aV0.00
p2683
aV0.00
p2684
aV0.00
p2685
aV0.00
p2686
aV0.00
p2687
aV0.00
p2688
aV0.00
p2689
aV0.00
p2690
aV0.00
p2691
aV0.00
p2692
aV0.00
p2693
aV0.00
p2694
aV0.00
p2695
aV0.00
p2696
aV0.00
p2697
aV0.00
p2698
aV0.00
p2699
aV0.00
p2700
aV0.00
p2701
aV0.00
p2702
aV0.00
p2703
aV0.00
p2704
aV0.00
p2705
aV0.00
p2706
aV0.00
p2707
aV0.00
p2708
aV0.00
p2709
aV0.00
p2710
aV0.00
p2711
aV0.00
p2712
aV0.00
p2713
aV0.00
p2714
aV0.00
p2715
aV0.00
p2716
aV0.00
p2717
aV0.00
p2718
aV0.00
p2719
aV0.00
p2720
aV0.00
p2721
aV0.00
p2722
aV0.00
p2723
aV0.00
p2724
aV0.00
p2725
aV0.00
p2726
aV0.00
p2727
aV0.00
p2728
aV0.00
p2729
aV0.00
p2730
aV0.00
p2731
aV0.00
p2732
aV0.00
p2733
aV0.00
p2734
aV0.00
p2735
aV0.00
p2736
aV0.00
p2737
aV0.00
p2738
aV0.00
p2739
aV0.00
p2740
aV0.00
p2741
aV0.00
p2742
aV0.00
p2743
aV0.00
p2744
aV0.00
p2745
aV0.00
p2746
aV0.00
p2747
aV0.00
p2748
aV0.00
p2749
aV0.00
p2750
aV0.00
p2751
aV0.00
p2752
aV0.00
p2753
aV0.00
p2754
aV0.00
p2755
aV0.00
p2756
aV0.00
p2757
aV0.00
p2758
aV0.00
p2759
aV0.00
p2760
aV0.00
p2761
aV0.00
p2762
aV0.00
p2763
aV0.00
p2764
aV0.00
p2765
aV0.00
p2766
aV0.00
p2767
aV0.00
p2768
aV0.00
p2769
aV0.00
p2770
aV0.00
p2771
aV0.00
p2772
aV0.00
p2773
aV0.00
p2774
aV0.00
p2775
aV0.00
p2776
aV0.00
p2777
aV0.00
p2778
aV0.00
p2779
aV0.00
p2780
aV0.00
p2781
aV0.00
p2782
aV0.00
p2783
aV0.00
p2784
aV0.00
p2785
aV0.00
p2786
aV0.00
p2787
aV0.00
p2788
aV0.00
p2789
aV0.00
p2790
aV0.00
p2791
aV0.00
p2792
aV0.00
p2793
aV0.00
p2794
aV0.00
p2795
aV3.96
p2796
aV0.00
p2797
aV0.00
p2798
aV0.00
p2799
aV0.00
p2800
aV0.00
p2801
aV0.00
p2802
aV0.00
p2803
aV0.00
p2804
aV0.00
p2805
aV7.39
p2806
aV0.00
p2807
aV12.87
p2808
aV10.03
p2809
aV0.00
p2810
aV0.00
p2811
aV0.00
p2812
aV0.00
p2813
aV0.00
p2814
aV0.00
p2815
aV3.41
p2816
aV7.33
p2817
aV0.00
p2818
aV0.00
p2819
aV0.00
p2820
aV0.00
p2821
aV6.08
p2822
aV11.03
p2823
aV0.00
p2824
aV0.00
p2825
aV0.00
p2826
aV0.00
p2827
aV0.00
p2828
aV0.00
p2829
aV12.87
p2830
aV0.00
p2831
aV12.87
p2832
aV0.00
p2833
aV0.00
p2834
aV0.00
p2835
aV0.00
p2836
aV0.00
p2837
aV12.87
p2838
aV0.11
p2839
aV0.00
p2840
aV12.87
p2841
aV0.00
p2842
aV0.00
p2843
aV12.87
p2844
aV0.00
p2845
aV0.00
p2846
aV0.00
p2847
aV1.26
p2848
aV5.75
p2849
aV12.87
p2850
aV3.88
p2851
aV0.68
p2852
aV12.87
p2853
aV4.11
p2854
aV0.00
p2855
aV0.00
p2856
aV0.00
p2857
aV0.00
p2858
aV0.00
p2859
aV12.87
p2860
aV12.87
p2861
aV0.00
p2862
aV0.00
p2863
aV0.00
p2864
aV0.00
p2865
aV0.00
p2866
aV12.87
p2867
aV12.87
p2868
aV0.00
p2869
aV4.11
p2870
aV0.00
p2871
aV0.00
p2872
aV0.00
p2873
aV0.00
p2874
aV12.87
p2875
aV0.00
p2876
aV0.00
p2877
aV12.87
p2878
aV0.00
p2879
aV0.00
p2880
aV0.00
p2881
aV12.87
p2882
aV0.00
p2883
aV0.00
p2884
aV0.00
p2885
aV0.00
p2886
aV0.00
p2887
aV12.87
p2888
aV0.00
p2889
aV0.00
p2890
aV12.87
p2891
aVjanuary
p2892
aVfebruary
p2893
aVmarch
p2894
aVapril
p2895
aVmay
p2896
aVjune
p2897
aVjuly
p2898
aVaugust
p2899
aVseptember
p2900
aVoctober
p2901
aVnovember
p2902
aVdecember
p2903
atp2904
ba(lp2905
g17
(g18
(dp2906
g20
g21
(g22
(I0
tp2907
g24
tp2908
Rp2909
(I1
(L25L
tp2910
g31
I00
(lp2911
I1
aI2
aI3
aI4
aI5
aI6
aI7
aI8
aI9
aI10
aI11
aI12
aI13
aI14
aI15
aI16
aI17
aI18
aI19
aI20
aI21
aI22
aI23
aI24
ag113
atp2912
bsg43
Nstp2913
Rp2914
a(dp2915
g86
(dp2916
g88
g2579
sg89
(lp2917
(dp2918
g92
g93
(I0
I25
L1L
tp2919
Rp2920
sg96
g2601
sasstp2921
bsbsg799
g2
(g3
g4
Ntp2922
Rp2923
(dp2924
g8
g9
sg10
g11
sg12
g2
(g13
g4
Ntp2925
Rp2926
((lp2927
g17
(g18
(dp2928
g20
g21
(g22
(I0
tp2929
g24
tp2930
Rp2931
(I1
(L25L
tp2932
g31
I00
(lp2933
I1
aI2
aI3
aI4
aI5
aI6
aI7
aI8
aI9
aI10
aI11
aI12
aI13
aI14
aI15
aI16
aI17
aI18
aI19
aI20
aI21
aI22
aI23
aI24
ag113
atp2934
bsg43
Nstp2935
Rp2936
ag17
(g46
(dp2937
g20
g21
(g22
(I0
tp2938
g24
tp2939
Rp2940
(I1
(L12L
tp2941
g54
I00
S'\x00\x00\x00\x00\x00\x00\x00\x00\x01\x00\x00\x00\x00\x00\x00\x00\x02\x00\x00\x00\x00\x00\x00\x00\x03\x00\x00\x00\x00\x00\x00\x00\x04\x00\x00\x00\x00\x00\x00\x00\x05\x00\x00\x00\x00\x00\x00\x00\x06\x00\x00\x00\x00\x00\x00\x00\x07\x00\x00\x00\x00\x00\x00\x00\x08\x00\x00\x00\x00\x00\x00\x00\t\x00\x00\x00\x00\x00\x00\x00\n\x00\x00\x00\x00\x00\x00\x00\x0b\x00\x00\x00\x00\x00\x00\x00'
p2942
tp2943
bsg43
Nstp2944
Rp2945
a(lp2946
g21
(g22
(I0
tp2947
g24
tp2948
Rp2949
(I1
(L25L
L12L
tp2950
g31
I00
(lp2951
V0.00
p2952
aV0.81
p2953
aV0.00
p2954
aV1.67
p2955
aV1.81
p2956
aV0.23
p2957
aV0.00
p2958
aV0.00
p2959
aV0.00
p2960
aV0.00
p2961
aV0.00
p2962
aV0.00
p2963
aV0.00
p2964
aV1.22
p2965
aV0.00
p2966
aV1.70
p2967
aV2.29
p2968
aV0.95
p2969
aV0.00
p2970
aV0.00
p2971
aV0.00
p2972
aV0.00
p2973
aV12.83
p2974
aV0.00
p2975
aV0.00
p2976
aV1.03
p2977
aV12.26
p2978
aV1.87
p2979
aV2.30
p2980
aV0.79
p2981
aV0.00
p2982
aV0.00
p2983
aV0.00
p2984
aV0.00
p2985
aV0.00
p2986
aV0.00
p2987
aV0.00
p2988
aV1.58
p2989
aV0.00
p2990
aV1.80
p2991
aV2.19
p2992
aV1.64
p2993
aV0.00
p2994
aV0.00
p2995
aV0.00
p2996
aV0.00
p2997
aV0.00
p2998
aV0.00
p2999
aV0.00
p3000
aV0.83
p3001
aV0.00
p3002
aV1.88
p3003
aV1.27
p3004
aV0.00
p3005
aV0.00
p3006
aV0.00
p3007
aV0.00
p3008
aV0.00
p3009
aV0.00
p3010
aV0.00
p3011
aV0.00
p3012
aV1.69
p3013
aV0.78
p3014
aV5.64
p3015
aV0.00
p3016
aV1.41
p3017
aV0.00
p3018
aV6.67
p3019
aV10.92
p3020
aV1.69
p3021
aV12.87
p3022
aV0.00
p3023
aV0.00
p3024
aV6.06
p3025
aV12.87
p3026
aV8.46
p3027
aV4.55
p3028
aV5.78
p3029
aV0.43
p3030
aV8.23
p3031
aV12.87
p3032
aV12.87
p3033
aV12.87
p3034
aV12.87
p3035
aV0.00
p3036
aV5.05
p3037
aV3.75
p3038
aV2.83
p3039
aV0.00
p3040
aV0.00
p3041
aV0.00
p3042
aV0.00
p3043
aV4.73
p3044
aV0.00
p3045
aV4.17
p3046
aV0.00
p3047
aV0.00
p3048
aV0.00
p3049
aV0.00
p3050
aV0.00
p3051
aV0.00
p3052
aV0.00
p3053
aV1.84
p3054
aV0.00
p3055
aV0.00
p3056
aV0.00
p3057
aV0.00
p3058
aV12.87
p3059
aV12.83
p3060
aV0.00
p3061
aV0.00
p3062
aV0.00
p3063
aV0.00
p3064
aV0.00
p3065
aV0.00
p3066
aV0.00
p3067
aV0.00
p3068
aV0.00
p3069
aV0.00
p3070
aV0.00
p3071
aV0.00
p3072
aV0.00
p3073
aV0.00
p3074
aV0.00
p3075
aV0.00
p3076
aV0.00
p3077
aV0.00
p3078
aV0.00
p3079
aV0.00
p3080
aV0.00
p3081
aV0.00
p3082
aV0.00
p3083
aV3.29
p3084
aV0.00
p3085
aV0.00
p3086
aV0.00
p3087
aV0.00
p3088
aV0.00
p3089
aV0.00
p3090
aV0.00
p3091
aV0.00
p3092
aV0.00
p3093
aV0.00
p3094
aV0.00
p3095
aV0.00
p3096
aV0.00
p3097
aV0.00
p3098
aV0.00
p3099
aV0.00
p3100
aV0.00
p3101
aV0.00
p3102
aV0.00
p3103
aV0.00
p3104
aV0.00
p3105
aV0.00
p3106
aV0.00
p3107
aV0.00
p3108
aV0.00
p3109
aV0.00
p3110
aV0.00
p3111
aV0.00
p3112
aV0.00
p3113
aV0.00
p3114
aV0.00
p3115
aV0.00
p3116
aV0.00
p3117
aV0.00
p3118
aV0.00
p3119
aV0.00
p3120
aV0.00
p3121
aV0.00
p3122
aV0.00
p3123
aV0.00
p3124
aV11.38
p3125
aV0.00
p3126
aV2.94
p3127
aV0.00
p3128
aV0.00
p3129
aV0.00
p3130
aV0.00
p3131
aV4.95
p3132
aV0.00
p3133
aV9.02
p3134
aV4.94
p3135
aV11.00
p3136
aV12.87
p3137
aV12.87
p3138
aV12.87
p3139
aV12.87
p3140
aV12.87
p3141
aV0.00
p3142
aV0.00
p3143
aV12.87
p3144
aV6.03
p3145
aV2.13
p3146
aV0.00
p3147
aV0.00
p3148
aV0.00
p3149
aV0.00
p3150
aV0.00
p3151
aV0.00
p3152
aV0.00
p3153
aV12.87
p3154
aV12.87
p3155
aV0.00
p3156
aV8.04
p3157
aV0.00
p3158
aV0.00
p3159
aV0.00
p3160
aV0.00
p3161
aV0.00
p3162
aV0.00
p3163
aV0.00
p3164
aV6.62
p3165
aV0.00
p3166
aV0.00
p3167
aV0.00
p3168
aV0.00
p3169
aV0.39
p3170
aV0.00
p3171
aV0.00
p3172
aV0.00
p3173
aV7.03
p3174
aV6.78
p3175
aV0.73
p3176
aV4.78
p3177
aV0.00
p3178
aV0.00
p3179
aV0.00
p3180
aV0.00
p3181
aV0.00
p3182
aV0.00
p3183
aV7.66
p3184
aV9.90
p3185
aV12.59
p3186
aV4.99
p3187
aV0.73
p3188
aV5.52
p3189
aV4.08
p3190
aV12.87
p3191
aV0.00
p3192
aV0.00
p3193
aV0.00
p3194
aV1.11
p3195
aV8.18
p3196
aV12.87
p3197
aV10.31
p3198
aV2.98
p3199
aV0.73
p3200
aV5.56
p3201
aV12.87
p3202
aV0.00
p3203
aV0.00
p3204
aV0.38
p3205
aV12.87
p3206
aV0.43
p3207
aV0.00
p3208
aV0.00
p3209
aV0.00
p3210
aV0.00
p3211
aV0.00
p3212
aV0.00
p3213
aV12.87
p3214
aV0.00
p3215
aV0.00
p3216
aV0.00
p3217
aV0.00
p3218
aV1.51
p3219
aV0.77
p3220
aV0.00
p3221
aV0.00
p3222
aV0.00
p3223
aV0.00
p3224
aV0.00
p3225
aV0.00
p3226
aV0.00
p3227
aV0.00
p3228
aV0.94
p3229
aV0.00
p3230
aV0.71
p3231
aV0.58
p3232
aV0.01
p3233
aV0.00
p3234
aV0.00
p3235
aV0.00
p3236
aV0.00
p3237
aV0.00
p3238
aV0.00
p3239
aVjanuary
p3240
aVfebruary
p3241
aVmarch
p3242
aVapril
p3243
aVmay
p3244
aVjune
p3245
aVjuly
p3246
aVaugust
p3247
aVseptember
p3248
aVoctober
p3249
aVnovember
p3250
aVdecember
p3251
atp3252
ba(lp3253
g17
(g18
(dp3254
g20
g21
(g22
(I0
tp3255
g24
tp3256
Rp3257
(I1
(L25L
tp3258
g31
I00
(lp3259
I1
aI2
aI3
aI4
aI5
aI6
aI7
aI8
aI9
aI10
aI11
aI12
aI13
aI14
aI15
aI16
aI17
aI18
aI19
aI20
aI21
aI22
aI23
aI24
ag113
atp3260
bsg43
Nstp3261
Rp3262
a(dp3263
g86
(dp3264
g88
g2927
sg89
(lp3265
(dp3266
g92
g93
(I0
I25
L1L
tp3267
Rp3268
sg96
g2949
sasstp3269
bsbssg1153
F56.0
sg1160
g2
(g3
g4
Ntp3270
Rp3271
(dp3272
g8
g9
sg10
g11
sg12
g2
(g13
g4
Ntp3273
Rp3274
((lp3275
g17
(g18
(dp3276
g20
g21
(g22
(I0
tp3277
g24
tp3278
Rp3279
(I1
(L6L
tp3280
g31
I00
(lp3281
VAge
p3282
aVExisting Capacity
p3283
aVLifetime
p3284
aVNew Capacity
p3285
aVTechnology
p3286
aVTotal Capacity
p3287
atp3288
bsg43
Nstp3289
Rp3290
ag17
(g46
(dp3291
g20
g21
(g22
(I0
tp3292
g24
tp3293
Rp3294
(I1
(L1L
tp3295
g54
I00
S'\x00\x00\x00\x00\x00\x00\x00\x00'
p3296
tp3297
bsg43
Nstp3298
Rp3299
a(lp3300
g21
(g22
(I0
tp3301
g24
tp3302
Rp3303
(I1
(L6L
L1L
tp3304
g31
I00
(lp3305
V""
p3306
ag68
aV5
p3307
aV48
p3308
aV"Stationary Battery Capacity (kWh)"
p3309
aV48
p3310
atp3311
ba(lp3312
g17
(g18
(dp3313
g20
g21
(g22
(I0
tp3314
g24
tp3315
Rp3316
(I1
(L6L
tp3317
g31
I00
(lp3318
g3282
ag3283
ag3284
ag3285
ag3286
ag3287
atp3319
bsg43
Nstp3320
Rp3321
a(dp3322
g86
(dp3323
g88
g3275
sg89
(lp3324
(dp3325
g92
g93
(I0
I6
L1L
tp3326
Rp3327
sg96
g3303
sasstp3328
bsbsg1173
(dp3329
g100
g2
(g3
g4
Ntp3330
Rp3331
(dp3332
g8
g9
sg10
g11
sg12
g2
(g13
g4
Ntp3333
Rp3334
((lp3335
g17
(g18
(dp3336
g20
g21
(g22
(I0
tp3337
g24
tp3338
Rp3339
(I1
(L25L
tp3340
g31
I00
(lp3341
I1
aI2
aI3
aI4
aI5
aI6
aI7
aI8
aI9
aI10
aI11
aI12
aI13
aI14
aI15
aI16
aI17
aI18
aI19
aI20
aI21
aI22
aI23
aI24
ag113
atp3342
bsg43
Nstp3343
Rp3344
ag17
(g46
(dp3345
g20
g21
(g22
(I0
tp3346
g24
tp3347
Rp3348
(I1
(L12L
tp3349
g54
I00
S'\x00\x00\x00\x00\x00\x00\x00\x00\x01\x00\x00\x00\x00\x00\x00\x00\x02\x00\x00\x00\x00\x00\x00\x00\x03\x00\x00\x00\x00\x00\x00\x00\x04\x00\x00\x00\x00\x00\x00\x00\x05\x00\x00\x00\x00\x00\x00\x00\x06\x00\x00\x00\x00\x00\x00\x00\x07\x00\x00\x00\x00\x00\x00\x00\x08\x00\x00\x00\x00\x00\x00\x00\t\x00\x00\x00\x00\x00\x00\x00\n\x00\x00\x00\x00\x00\x00\x00\x0b\x00\x00\x00\x00\x00\x00\x00'
p3350
tp3351
bsg43
Nstp3352
Rp3353
a(lp3354
g21
(g22
(I0
tp3355
g24
tp3356
Rp3357
(I1
(L25L
L12L
tp3358
g31
I00
(lp3359
V0.00
p3360
aV2.15
p3361
aV8.02
p3362
aV0.00
p3363
aV0.00
p3364
aV0.00
p3365
aV8.01
p3366
aV0.67
p3367
aV0.95
p3368
aV0.00
p3369
aV15.89
p3370
aV15.89
p3371
aV0.00
p3372
aV0.00
p3373
aV0.00
p3374
aV1.21
p3375
aV0.00
p3376
aV0.00
p3377
aV0.00
p3378
aV0.00
p3379
aV0.00
p3380
aV0.00
p3381
aV5.39
p3382
aV0.00
p3383
aV0.00
p3384
aV0.00
p3385
aV0.00
p3386
aV1.02
p3387
aV0.66
p3388
aV0.00
p3389
aV0.00
p3390
aV0.67
p3391
aV0.00
p3392
aV8.22
p3393
aV0.00
p3394
aV0.00
p3395
aV15.89
p3396
aV0.00
p3397
aV0.00
p3398
aV0.00
p3399
aV0.00
p3400
aV0.00
p3401
aV0.00
p3402
aV0.00
p3403
aV0.00
p3404
aV0.00
p3405
aV0.00
p3406
aV0.00
p3407
aV0.00
p3408
aV1.60
p3409
aV7.53
p3410
aV0.64
p3411
aV0.00
p3412
aV5.72
p3413
aV10.77
p3414
aV0.00
p3415
aV0.00
p3416
aV0.00
p3417
aV15.89
p3418
aV0.00
p3419
aV0.00
p3420
aV0.00
p3421
aV3.18
p3422
aV0.00
p3423
aV0.00
p3424
aV0.00
p3425
aV0.00
p3426
aV0.00
p3427
aV0.00
p3428
aV0.00
p3429
aV0.00
p3430
aV0.00
p3431
aV15.89
p3432
aV0.00
p3433
aV0.00
p3434
aV0.00
p3435
aV0.00
p3436
aV0.00
p3437
aV0.00
p3438
aV0.00
p3439
aV0.00
p3440
aV0.00
p3441
aV10.39
p3442
aV15.89
p3443
aV15.89
p3444
aV0.00
p3445
aV0.00
p3446
aV0.00
p3447
aV0.02
p3448
aV0.02
p3449
aV0.02
p3450
aV0.00
p3451
aV0.00
p3452
aV0.00
p3453
aV0.00
p3454
aV0.00
p3455
aV0.00
p3456
aV0.00
p3457
aV0.00
p3458
aV0.00
p3459
aV0.02
p3460
aV0.02
p3461
aV0.02
p3462
aV0.02
p3463
aV0.02
p3464
aV0.00
p3465
aV0.00
p3466
aV0.00
p3467
aV0.00
p3468
aV0.02
p3469
aV0.02
p3470
aV0.02
p3471
aV0.02
p3472
aV15.29
p3473
aV15.85
p3474
aV0.02
p3475
aV0.02
p3476
aV0.02
p3477
aV0.00
p3478
aV0.00
p3479
aV0.00
p3480
aV0.02
p3481
aV7.14
p3482
aV0.06
p3483
aV0.02
p3484
aV15.89
p3485
aV15.89
p3486
aV15.89
p3487
aV11.90
p3488
aV13.43
p3489
aV0.02
p3490
aV4.83
p3491
aV2.81
p3492
aV0.02
p3493
aV0.00
p3494
aV0.00
p3495
aV0.02
p3496
aV0.00
p3497
aV0.00
p3498
aV15.89
p3499
aV15.89
p3500
aV0.00
p3501
aV15.89
p3502
aV8.24
p3503
aV7.58
p3504
aV0.02
p3505
aV15.89
p3506
aV0.00
p3507
aV0.03
p3508
aV6.04
p3509
aV5.48
p3510
aV0.00
p3511
aV0.00
p3512
aV0.00
p3513
aV15.89
p3514
aV1.71
p3515
aV9.22
p3516
aV10.25
p3517
aV14.15
p3518
aV0.00
p3519
aV0.00
p3520
aV0.00
p3521
aV0.00
p3522
aV0.00
p3523
aV0.00
p3524
aV15.89
p3525
aV0.00
p3526
aV10.21
p3527
aV3.97
p3528
aV15.89
p3529
aV0.05
p3530
aV10.83
p3531
aV13.31
p3532
aV0.00
p3533
aV0.00
p3534
aV0.00
p3535
aV3.96
p3536
aV7.91
p3537
aV5.44
p3538
aV12.22
p3539
aV1.02
p3540
aV11.03
p3541
aV0.00
p3542
aV0.00
p3543
aV0.00
p3544
aV0.00
p3545
aV0.00
p3546
aV0.00
p3547
aV0.00
p3548
aV0.00
p3549
aV0.00
p3550
aV0.00
p3551
aV0.00
p3552
aV0.00
p3553
aV6.92
p3554
aV15.89
p3555
aV15.89
p3556
aV15.89
p3557
aV15.89
p3558
aV15.89
p3559
aV15.89
p3560
aV1.47
p3561
aV0.00
p3562
aV0.00
p3563
aV0.00
p3564
aV0.00
p3565
aV0.00
p3566
aV12.27
p3567
aV12.72
p3568
aV13.80
p3569
aV10.75
p3570
aV10.81
p3571
aV0.00
p3572
aV0.00
p3573
aV15.89
p3574
aV0.00
p3575
aV0.00
p3576
aV0.00
p3577
aV0.00
p3578
aV0.00
p3579
aV0.00
p3580
aV2.76
p3581
aV0.05
p3582
aV0.00
p3583
aV0.00
p3584
aV0.00
p3585
aV0.20
p3586
aV0.00
p3587
aV0.00
p3588
aV0.00
p3589
aV9.41
p3590
aV2.95
p3591
aV0.00
p3592
aV0.00
p3593
aV0.00
p3594
aV0.00
p3595
aV0.00
p3596
aV0.00
p3597
aV0.00
p3598
aV0.00
p3599
aV0.00
p3600
aV3.15
p3601
aV3.04
p3602
aV0.00
p3603
aV0.00
p3604
aV0.00
p3605
aV0.00
p3606
aV0.00
p3607
aV0.00
p3608
aV0.00
p3609
aV0.00
p3610
aV15.89
p3611
aV0.00
p3612
aV0.00
p3613
aV0.00
p3614
aV0.00
p3615
aV0.00
p3616
aV0.00
p3617
aV8.01
p3618
aV0.00
p3619
aV0.00
p3620
aV0.00
p3621
aV10.74
p3622
aV0.42
p3623
aV15.89
p3624
aV2.58
p3625
aV0.00
p3626
aV2.05
p3627
aV1.65
p3628
aV1.50
p3629
aV8.01
p3630
aV0.00
p3631
aV0.00
p3632
aV9.50
p3633
aV0.00
p3634
aV0.00
p3635
aV0.00
p3636
aV0.00
p3637
aV0.00
p3638
aV1.73
p3639
aV0.00
p3640
aV1.48
p3641
aV0.00
p3642
aV0.00
p3643
aV0.95
p3644
aV9.19
p3645
aV15.89
p3646
aV15.89
p3647
aVjanuary
p3648
aVfebruary
p3649
aVmarch
p3650
aVapril
p3651
aVmay
p3652
aVjune
p3653
aVjuly
p3654
aVaugust
p3655
aVseptember
p3656
aVoctober
p3657
aVnovember
p3658
aVdecember
p3659
atp3660
ba(lp3661
g17
(g18
(dp3662
g20
g21
(g22
(I0
tp3663
g24
tp3664
Rp3665
(I1
(L25L
tp3666
g31
I00
(lp3667
I1
aI2
aI3
aI4
aI5
aI6
aI7
aI8
aI9
aI10
aI11
aI12
aI13
aI14
aI15
aI16
aI17
aI18
aI19
aI20
aI21
aI22
aI23
aI24
ag113
atp3668
bsg43
Nstp3669
Rp3670
a(dp3671
g86
(dp3672
g88
g3335
sg89
(lp3673
(dp3674
g92
g93
(I0
I25
L1L
tp3675
Rp3676
sg96
g3357
sasstp3677
bsbsg450
g2
(g3
g4
Ntp3678
Rp3679
(dp3680
g8
g9
sg10
g11
sg12
g2
(g13
g4
Ntp3681
Rp3682
((lp3683
g17
(g18
(dp3684
g20
g21
(g22
(I0
tp3685
g24
tp3686
Rp3687
(I1
(L25L
tp3688
g31
I00
(lp3689
I1
aI2
aI3
aI4
aI5
aI6
aI7
aI8
aI9
aI10
aI11
aI12
aI13
aI14
aI15
aI16
aI17
aI18
aI19
aI20
aI21
aI22
aI23
aI24
ag113
atp3690
bsg43
Nstp3691
Rp3692
ag17
(g46
(dp3693
g20
g21
(g22
(I0
tp3694
g24
tp3695
Rp3696
(I1
(L12L
tp3697
g54
I00
S'\x00\x00\x00\x00\x00\x00\x00\x00\x01\x00\x00\x00\x00\x00\x00\x00\x02\x00\x00\x00\x00\x00\x00\x00\x03\x00\x00\x00\x00\x00\x00\x00\x04\x00\x00\x00\x00\x00\x00\x00\x05\x00\x00\x00\x00\x00\x00\x00\x06\x00\x00\x00\x00\x00\x00\x00\x07\x00\x00\x00\x00\x00\x00\x00\x08\x00\x00\x00\x00\x00\x00\x00\t\x00\x00\x00\x00\x00\x00\x00\n\x00\x00\x00\x00\x00\x00\x00\x0b\x00\x00\x00\x00\x00\x00\x00'
p3698
tp3699
bsg43
Nstp3700
Rp3701
a(lp3702
g21
(g22
(I0
tp3703
g24
tp3704
Rp3705
(I1
(L25L
L12L
tp3706
g31
I00
(lp3707
V0.00
p3708
aV0.73
p3709
aV0.00
p3710
aV0.00
p3711
aV0.38
p3712
aV0.71
p3713
aV0.00
p3714
aV0.00
p3715
aV0.00
p3716
aV0.00
p3717
aV0.00
p3718
aV11.10
p3719
aV15.89
p3720
aV0.57
p3721
aV0.00
p3722
aV0.00
p3723
aV0.00
p3724
aV0.58
p3725
aV3.50
p3726
aV0.00
p3727
aV0.00
p3728
aV0.00
p3729
aV0.05
p3730
aV0.00
p3731
aV0.00
p3732
aV0.00
p3733
aV6.29
p3734
aV0.00
p3735
aV0.00
p3736
aV0.00
p3737
aV0.00
p3738
aV0.00
p3739
aV0.00
p3740
aV7.85
p3741
aV0.00
p3742
aV0.00
p3743
aV0.00
p3744
aV0.28
p3745
aV0.00
p3746
aV0.00
p3747
aV0.00
p3748
aV0.00
p3749
aV7.28
p3750
aV0.00
p3751
aV0.00
p3752
aV7.55
p3753
aV0.00
p3754
aV0.00
p3755
aV0.05
p3756
aV0.00
p3757
aV5.91
p3758
aV0.00
p3759
aV2.20
p3760
aV0.02
p3761
aV0.00
p3762
aV0.00
p3763
aV0.05
p3764
aV0.00
p3765
aV0.05
p3766
aV15.89
p3767
aV0.00
p3768
aV0.00
p3769
aV0.00
p3770
aV0.00
p3771
aV0.00
p3772
aV0.02
p3773
aV0.00
p3774
aV0.00
p3775
aV0.00
p3776
aV0.00
p3777
aV0.00
p3778
aV0.00
p3779
aV0.00
p3780
aV0.00
p3781
aV0.00
p3782
aV0.02
p3783
aV0.13
p3784
aV0.02
p3785
aV2.93
p3786
aV0.02
p3787
aV0.00
p3788
aV0.02
p3789
aV0.00
p3790
aV0.03
p3791
aV0.00
p3792
aV0.00
p3793
aV0.02
p3794
aV0.02
p3795
aV0.00
p3796
aV0.02
p3797
aV0.00
p3798
aV0.02
p3799
aV0.02
p3800
aV0.02
p3801
aV0.02
p3802
aV0.00
p3803
aV0.02
p3804
aV0.02
p3805
aV0.02
p3806
aV0.03
p3807
aV0.00
p3808
aV0.02
p3809
aV0.00
p3810
aV0.03
p3811
aV0.02
p3812
aV0.02
p3813
aV0.02
p3814
aV0.02
p3815
aV0.02
p3816
aV0.08
p3817
aV0.02
p3818
aV0.00
p3819
aV0.00
p3820
aV0.02
p3821
aV0.00
p3822
aV0.00
p3823
aV5.48
p3824
aV0.05
p3825
aV0.05
p3826
aV0.02
p3827
aV0.02
p3828
aV0.00
p3829
aV0.02
p3830
aV0.06
p3831
aV0.00
p3832
aV3.13
p3833
aV0.00
p3834
aV0.03
p3835
aV0.00
p3836
aV0.00
p3837
aV0.00
p3838
aV0.02
p3839
aV0.02
p3840
aV0.00
p3841
aV5.44
p3842
aV0.00
p3843
aV0.00
p3844
aV0.00
p3845
aV0.00
p3846
aV0.00
p3847
aV0.00
p3848
aV0.00
p3849
aV0.00
p3850
aV0.02
p3851
aV5.39
p3852
aV0.00
p3853
aV0.00
p3854
aV0.00
p3855
aV0.00
p3856
aV0.00
p3857
aV0.00
p3858
aV0.05
p3859
aV0.00
p3860
aV0.02
p3861
aV5.39
p3862
aV0.02
p3863
aV0.00
p3864
aV0.00
p3865
aV0.00
p3866
aV0.00
p3867
aV0.00
p3868
aV0.00
p3869
aV0.00
p3870
aV0.00
p3871
aV0.00
p3872
aV5.37
p3873
aV0.00
p3874
aV5.37
p3875
aV15.89
p3876
aV5.37
p3877
aV0.00
p3878
aV0.02
p3879
aV5.37
p3880
aV0.00
p3881
aV0.00
p3882
aV0.00
p3883
aV0.00
p3884
aV15.89
p3885
aV15.89
p3886
aV15.89
p3887
aV15.89
p3888
aV15.89
p3889
aV15.89
p3890
aV7.40
p3891
aV15.89
p3892
aV15.89
p3893
aV15.89
p3894
aV15.89
p3895
aV15.89
p3896
aV15.89
p3897
aV15.89
p3898
aV15.89
p3899
aV0.00
p3900
aV15.89
p3901
aV15.89
p3902
aV15.89
p3903
aV15.89
p3904
aV15.89
p3905
aV15.89
p3906
aV15.89
p3907
aV15.89
p3908
aV0.05
p3909
aV0.00
p3910
aV0.05
p3911
aV0.00
p3912
aV0.00
p3913
aV0.00
p3914
aV13.87
p3915
aV0.05
p3916
aV0.00
p3917
aV2.64
p3918
aV5.39
p3919
aV0.00
p3920
aV0.00
p3921
aV9.23
p3922
aV0.00
p3923
aV15.89
p3924
aV2.43
p3925
aV0.00
p3926
aV0.00
p3927
aV0.00
p3928
aV2.41
p3929
aV0.00
p3930
aV0.05
p3931
aV0.00
p3932
aV9.15
p3933
aV0.00
p3934
aV0.00
p3935
aV0.00
p3936
aV2.37
p3937
aV0.00
p3938
aV0.00
p3939
aV0.00
p3940
aV0.05
p3941
aV0.00
p3942
aV0.00
p3943
aV0.00
p3944
aV0.00
p3945
aV0.00
p3946
aV0.00
p3947
aV0.00
p3948
aV0.00
p3949
aV7.71
p3950
aV0.00
p3951
aV0.00
p3952
aV0.00
p3953
aV0.00
p3954
aV0.00
p3955
aV0.00
p3956
aV0.00
p3957
aV0.00
p3958
aV0.00
p3959
aV15.89
p3960
aV0.00
p3961
aV0.00
p3962
aV0.00
p3963
aV0.00
p3964
aV0.00
p3965
aV0.00
p3966
aV0.00
p3967
aV0.21
p3968
aV0.00
p3969
aV0.00
p3970
aV0.00
p3971
aV0.00
p3972
aV0.00
p3973
aV0.00
p3974
aV0.00
p3975
aV0.00
p3976
aV0.00
p3977
aV0.00
p3978
aV0.00
p3979
aV0.00
p3980
aV0.00
p3981
aV0.00
p3982
aV0.00
p3983
aV15.89
p3984
aV1.28
p3985
aV0.00
p3986
aV0.22
p3987
aV0.00
p3988
aV0.80
p3989
aV0.00
p3990
aV0.00
p3991
aV0.00
p3992
aV7.95
p3993
aV0.00
p3994
aV0.00
p3995
aVjanuary
p3996
aVfebruary
p3997
aVmarch
p3998
aVapril
p3999
aVmay
p4000
aVjune
p4001
aVjuly
p4002
aVaugust
p4003
aVseptember
p4004
aVoctober
p4005
aVnovember
p4006
aVdecember
p4007
atp4008
ba(lp4009
g17
(g18
(dp4010
g20
g21
(g22
(I0
tp4011
g24
tp4012
Rp4013
(I1
(L25L
tp4014
g31
I00
(lp4015
I1
aI2
aI3
aI4
aI5
aI6
aI7
aI8
aI9
aI10
aI11
aI12
aI13
aI14
aI15
aI16
aI17
aI18
aI19
aI20
aI21
aI22
aI23
aI24
ag113
atp4016
bsg43
Nstp4017
Rp4018
a(dp4019
g86
(dp4020
g88
g3683
sg89
(lp4021
(dp4022
g92
g93
(I0
I25
L1L
tp4023
Rp4024
sg96
g3705
sasstp4025
bsbsg799
g2
(g3
g4
Ntp4026
Rp4027
(dp4028
g8
g9
sg10
g11
sg12
g2
(g13
g4
Ntp4029
Rp4030
((lp4031
g17
(g18
(dp4032
g20
g21
(g22
(I0
tp4033
g24
tp4034
Rp4035
(I1
(L25L
tp4036
g31
I00
(lp4037
I1
aI2
aI3
aI4
aI5
aI6
aI7
aI8
aI9
aI10
aI11
aI12
aI13
aI14
aI15
aI16
aI17
aI18
aI19
aI20
aI21
aI22
aI23
aI24
ag113
atp4038
bsg43
Nstp4039
Rp4040
ag17
(g46
(dp4041
g20
g21
(g22
(I0
tp4042
g24
tp4043
Rp4044
(I1
(L12L
tp4045
g54
I00
S'\x00\x00\x00\x00\x00\x00\x00\x00\x01\x00\x00\x00\x00\x00\x00\x00\x02\x00\x00\x00\x00\x00\x00\x00\x03\x00\x00\x00\x00\x00\x00\x00\x04\x00\x00\x00\x00\x00\x00\x00\x05\x00\x00\x00\x00\x00\x00\x00\x06\x00\x00\x00\x00\x00\x00\x00\x07\x00\x00\x00\x00\x00\x00\x00\x08\x00\x00\x00\x00\x00\x00\x00\t\x00\x00\x00\x00\x00\x00\x00\n\x00\x00\x00\x00\x00\x00\x00\x0b\x00\x00\x00\x00\x00\x00\x00'
p4046
tp4047
bsg43
Nstp4048
Rp4049
a(lp4050
g21
(g22
(I0
tp4051
g24
tp4052
Rp4053
(I1
(L25L
L12L
tp4054
g31
I00
(lp4055
V0.00
p4056
aV0.00
p4057
aV5.30
p4058
aV0.00
p4059
aV0.00
p4060
aV0.00
p4061
aV2.03
p4062
aV0.00
p4063
aV0.21
p4064
aV0.28
p4065
aV15.89
p4066
aV15.89
p4067
aV0.00
p4068
aV0.00
p4069
aV0.00
p4070
aV0.00
p4071
aV0.00
p4072
aV0.00
p4073
aV7.28
p4074
aV0.00
p4075
aV0.21
p4076
aV0.00
p4077
aV0.00
p4078
aV0.00
p4079
aV0.00
p4080
aV0.00
p4081
aV0.00
p4082
aV0.00
p4083
aV0.00
p4084
aV0.00
p4085
aV0.00
p4086
aV0.00
p4087
aV0.21
p4088
aV0.00
p4089
aV15.89
p4090
aV0.00
p4091
aV0.00
p4092
aV0.00
p4093
aV4.78
p4094
aV0.00
p4095
aV0.00
p4096
aV0.00
p4097
aV0.00
p4098
aV0.00
p4099
aV0.21
p4100
aV0.00
p4101
aV5.38
p4102
aV0.00
p4103
aV0.00
p4104
aV0.00
p4105
aV0.00
p4106
aV0.00
p4107
aV0.00
p4108
aV3.34
p4109
aV8.77
p4110
aV0.00
p4111
aV0.02
p4112
aV4.94
p4113
aV15.89
p4114
aV15.89
p4115
aV0.00
p4116
aV0.00
p4117
aV0.00
p4118
aV0.00
p4119
aV2.22
p4120
aV0.00
p4121
aV5.07
p4122
aV0.00
p4123
aV0.00
p4124
aV0.00
p4125
aV0.00
p4126
aV0.00
p4127
aV8.80
p4128
aV0.00
p4129
aV0.00
p4130
aV0.00
p4131
aV0.00
p4132
aV0.00
p4133
aV0.00
p4134
aV0.00
p4135
aV0.00
p4136
aV0.00
p4137
aV0.00
p4138
aV0.00
p4139
aV12.47
p4140
aV0.00
p4141
aV0.00
p4142
aV0.00
p4143
aV0.03
p4144
aV0.03
p4145
aV4.43
p4146
aV0.03
p4147
aV0.00
p4148
aV0.00
p4149
aV0.00
p4150
aV0.00
p4151
aV15.89
p4152
aV0.02
p4153
aV0.00
p4154
aV0.02
p4155
aV0.00
p4156
aV0.00
p4157
aV0.00
p4158
aV0.00
p4159
aV0.02
p4160
aV0.02
p4161
aV0.00
p4162
aV0.00
p4163
aV0.00
p4164
aV0.02
p4165
aV0.02
p4166
aV0.02
p4167
aV0.02
p4168
aV6.69
p4169
aV0.65
p4170
aV9.54
p4171
aV8.33
p4172
aV0.02
p4173
aV0.00
p4174
aV0.00
p4175
aV0.00
p4176
aV4.85
p4177
aV0.02
p4178
aV0.02
p4179
aV0.92
p4180
aV14.57
p4181
aV2.74
p4182
aV11.19
p4183
aV12.49
p4184
aV0.02
p4185
aV4.19
p4186
aV0.00
p4187
aV0.00
p4188
aV15.89
p4189
aV4.60
p4190
aV0.02
p4191
aV0.00
p4192
aV15.89
p4193
aV9.32
p4194
aV15.89
p4195
aV15.89
p4196
aV10.66
p4197
aV10.35
p4198
aV1.93
p4199
aV2.07
p4200
aV0.00
p4201
aV15.89
p4202
aV7.05
p4203
aV15.89
p4204
aV0.05
p4205
aV0.00
p4206
aV0.59
p4207
aV0.00
p4208
aV14.76
p4209
aV15.07
p4210
aV0.00
p4211
aV3.26
p4212
aV0.00
p4213
aV11.13
p4214
aV0.00
p4215
aV0.00
p4216
aV0.05
p4217
aV0.11
p4218
aV0.00
p4219
aV0.55
p4220
aV11.74
p4221
aV1.07
p4222
aV3.97
p4223
aV0.00
p4224
aV12.09
p4225
aV5.58
p4226
aV7.35
p4227
aV5.73
p4228
aV0.00
p4229
aV0.00
p4230
aV0.00
p4231
aV0.05
p4232
aV0.05
p4233
aV6.56
p4234
aV8.28
p4235
aV0.00
p4236
aV4.44
p4237
aV0.00
p4238
aV0.00
p4239
aV0.00
p4240
aV0.00
p4241
aV0.00
p4242
aV0.00
p4243
aV0.00
p4244
aV0.00
p4245
aV0.05
p4246
aV0.00
p4247
aV0.00
p4248
aV0.00
p4249
aV0.00
p4250
aV15.89
p4251
aV15.89
p4252
aV15.89
p4253
aV0.18
p4254
aV15.89
p4255
aV13.41
p4256
aV6.79
p4257
aV0.00
p4258
aV0.00
p4259
aV0.00
p4260
aV0.00
p4261
aV7.64
p4262
aV13.04
p4263
aV12.43
p4264
aV12.44
p4265
aV15.89
p4266
aV3.87
p4267
aV2.62
p4268
aV0.00
p4269
aV0.00
p4270
aV0.00
p4271
aV0.00
p4272
aV2.31
p4273
aV0.00
p4274
aV0.00
p4275
aV0.00
p4276
aV1.81
p4277
aV0.00
p4278
aV0.00
p4279
aV0.00
p4280
aV0.00
p4281
aV15.89
p4282
aV12.79
p4283
aV0.00
p4284
aV0.63
p4285
aV6.83
p4286
aV0.11
p4287
aV0.00
p4288
aV0.00
p4289
aV0.00
p4290
aV0.00
p4291
aV0.00
p4292
aV0.00
p4293
aV0.00
p4294
aV0.00
p4295
aV0.00
p4296
aV1.45
p4297
aV0.00
p4298
aV0.00
p4299
aV0.00
p4300
aV0.00
p4301
aV0.00
p4302
aV0.00
p4303
aV0.00
p4304
aV0.00
p4305
aV0.00
p4306
aV0.00
p4307
aV0.00
p4308
aV0.00
p4309
aV0.00
p4310
aV0.00
p4311
aV0.15
p4312
aV0.80
p4313
aV0.03
p4314
aV0.00
p4315
aV0.21
p4316
aV0.02
p4317
aV0.00
p4318
aV5.53
p4319
aV0.00
p4320
aV0.68
p4321
aV5.85
p4322
aV0.00
p4323
aV0.00
p4324
aV0.56
p4325
aV0.00
p4326
aV0.00
p4327
aV0.21
p4328
aV6.93
p4329
aV0.03
p4330
aV0.00
p4331
aV0.00
p4332
aV0.00
p4333
aV0.00
p4334
aV0.00
p4335
aV0.00
p4336
aV0.00
p4337
aV0.02
p4338
aV0.00
p4339
aV0.21
p4340
aV6.10
p4341
aV0.00
p4342
aV0.00
p4343
aVjanuary
p4344
aVfebruary
p4345
aVmarch
p4346
aVapril
p4347
aVmay
p4348
aVjune
p4349
aVjuly
p4350
aVaugust
p4351
aVseptember
p4352
aVoctober
p4353
aVnovember
p4354
aVdecember
p4355
atp4356
ba(lp4357
g17
(g18
(dp4358
g20
g21
(g22
(I0
tp4359
g24
tp4360
Rp4361
(I1
(L25L
tp4362
g31
I00
(lp4363
I1
aI2
aI3
aI4
aI5
aI6
aI7
aI8
aI9
aI10
aI11
aI12
aI13
aI14
aI15
aI16
aI17
aI18
aI19
aI20
aI21
aI22
aI23
aI24
ag113
atp4364
bsg43
Nstp4365
Rp4366
a(dp4367
g86
(dp4368
g88
g4031
sg89
(lp4369
(dp4370
g92
g93
(I0
I25
L1L
tp4371
Rp4372
sg96
g4053
sasstp4373
bsbssg1164
(dp4374
g100
g2
(g3
g4
Ntp4375
Rp4376
(dp4377
g8
g9
sg10
g11
sg12
g2
(g13
g4
Ntp4378
Rp4379
((lp4380
g17
(g18
(dp4381
g20
g21
(g22
(I0
tp4382
g24
tp4383
Rp4384
(I1
(L25L
tp4385
g31
I00
(lp4386
I1
aI2
aI3
aI4
aI5
aI6
aI7
aI8
aI9
aI10
aI11
aI12
aI13
aI14
aI15
aI16
aI17
aI18
aI19
aI20
aI21
aI22
aI23
aI24
ag113
atp4387
bsg43
Nstp4388
Rp4389
ag17
(g46
(dp4390
g20
g21
(g22
(I0
tp4391
g24
tp4392
Rp4393
(I1
(L12L
tp4394
g54
I00
S'\x00\x00\x00\x00\x00\x00\x00\x00\x01\x00\x00\x00\x00\x00\x00\x00\x02\x00\x00\x00\x00\x00\x00\x00\x03\x00\x00\x00\x00\x00\x00\x00\x04\x00\x00\x00\x00\x00\x00\x00\x05\x00\x00\x00\x00\x00\x00\x00\x06\x00\x00\x00\x00\x00\x00\x00\x07\x00\x00\x00\x00\x00\x00\x00\x08\x00\x00\x00\x00\x00\x00\x00\t\x00\x00\x00\x00\x00\x00\x00\n\x00\x00\x00\x00\x00\x00\x00\x0b\x00\x00\x00\x00\x00\x00\x00'
p4395
tp4396
bsg43
Nstp4397
Rp4398
a(lp4399
g21
(g22
(I0
tp4400
g24
tp4401
Rp4402
(I1
(L25L
L12L
tp4403
g31
I00
(lp4404
V0.00
p4405
aV0.00
p4406
aV0.00
p4407
aV0.00
p4408
aV0.00
p4409
aV0.00
p4410
aV0.00
p4411
aV0.00
p4412
aV0.00
p4413
aV0.00
p4414
aV0.00
p4415
aV0.00
p4416
aV0.00
p4417
aV0.00
p4418
aV0.00
p4419
aV0.00
p4420
aV0.00
p4421
aV0.00
p4422
aV0.00
p4423
aV0.00
p4424
aV0.00
p4425
aV0.00
p4426
aV0.00
p4427
aV0.00
p4428
aV0.00
p4429
aV0.00
p4430
aV0.00
p4431
aV0.00
p4432
aV0.00
p4433
aV0.00
p4434
aV0.00
p4435
aV0.00
p4436
aV0.00
p4437
aV0.00
p4438
aV0.00
p4439
aV0.00
p4440
aV0.00
p4441
aV0.00
p4442
aV0.00
p4443
aV0.00
p4444
aV0.00
p4445
aV0.00
p4446
aV0.00
p4447
aV0.00
p4448
aV0.00
p4449
aV0.00
p4450
aV0.00
p4451
aV0.00
p4452
aV0.00
p4453
aV0.00
p4454
aV0.00
p4455
aV0.00
p4456
aV0.00
p4457
aV0.00
p4458
aV0.00
p4459
aV0.00
p4460
aV0.00
p4461
aV0.00
p4462
aV0.00
p4463
aV0.00
p4464
aV0.00
p4465
aV0.00
p4466
aV0.00
p4467
aV0.04
p4468
aV3.25
p4469
aV0.00
p4470
aV0.00
p4471
aV0.00
p4472
aV0.00
p4473
aV0.00
p4474
aV0.00
p4475
aV0.00
p4476
aV0.00
p4477
aV0.00
p4478
aV2.45
p4479
aV11.76
p4480
aV16.97
p4481
aV16.12
p4482
aV14.98
p4483
aV14.46
p4484
aV9.61
p4485
aV4.85
p4486
aV0.00
p4487
aV0.00
p4488
aV1.02
p4489
aV14.07
p4490
aV28.08
p4491
aV36.87
p4492
aV43.56
p4493
aV44.71
p4494
aV40.54
p4495
aV44.02
p4496
aV37.24
p4497
aV37.96
p4498
aV18.80
p4499
aV2.57
p4500
aV40.66
p4501
aV50.09
p4502
aV54.02
p4503
aV60.23
p4504
aV63.82
p4505
aV66.42
p4506
aV63.42
p4507
aV66.63
p4508
aV63.27
p4509
aV60.21
p4510
aV44.45
p4511
aV38.67
p4512
aV50.29
p4513
aV63.07
p4514
aV66.56
p4515
aV66.10
p4516
aV63.82
p4517
aV81.71
p4518
aV80.23
p4519
aV67.12
p4520
aV63.31
p4521
aV63.56
p4522
aV60.72
p4523
aV50.50
p4524
aV60.65
p4525
aV63.09
p4526
aV73.68
p4527
aV66.15
p4528
aV63.82
p4529
aV82.46
p4530
aV82.16
p4531
aV84.34
p4532
aV75.32
p4533
aV76.97
p4534
aV63.65
p4535
aV68.29
p4536
aV66.47
p4537
aV63.05
p4538
aV62.31
p4539
aV59.92
p4540
aV57.89
p4541
aV60.65
p4542
aV63.11
p4543
aV80.38
p4544
aV73.58
p4545
aV57.63
p4546
aV78.58
p4547
aV71.60
p4548
aV65.34
p4549
aV57.22
p4550
aV80.17
p4551
aV66.09
p4552
aV63.83
p4553
aV73.80
p4554
aV77.13
p4555
aV73.88
p4556
aV64.02
p4557
aV63.54
p4558
aV74.14
p4559
aV59.20
p4560
aV72.83
p4561
aV73.26
p4562
aV80.69
p4563
aV66.09
p4564
aV63.80
p4565
aV68.76
p4566
aV73.83
p4567
aV76.38
p4568
aV64.41
p4569
aV79.43
p4570
aV63.54
p4571
aV73.53
p4572
aV67.58
p4573
aV78.90
p4574
aV66.59
p4575
aV76.92
p4576
aV77.18
p4577
aV57.32
p4578
aV67.04
p4579
aV69.88
p4580
aV68.45
p4581
aV71.44
p4582
aV68.98
p4583
aV75.55
p4584
aV64.62
p4585
aV74.00
p4586
aV60.55
p4587
aV64.63
p4588
aV60.09
p4589
aV57.73
p4590
aV62.55
p4591
aV69.38
p4592
aV56.36
p4593
aV48.90
p4594
aV55.26
p4595
aV53.83
p4596
aV6.93
p4597
aV42.86
p4598
aV41.67
p4599
aV35.37
p4600
aV34.88
p4601
aV35.61
p4602
aV40.58
p4603
aV41.22
p4604
aV34.88
p4605
aV20.46
p4606
aV3.72
p4607
aV0.66
p4608
aV0.00
p4609
aV1.55
p4610
aV6.91
p4611
aV18.52
p4612
aV18.93
p4613
aV20.04
p4614
aV20.93
p4615
aV20.61
p4616
aV4.76
p4617
aV0.48
p4618
aV0.00
p4619
aV0.00
p4620
aV0.00
p4621
aV0.00
p4622
aV0.00
p4623
aV0.22
p4624
aV0.00
p4625
aV8.96
p4626
aV9.29
p4627
aV0.45
p4628
aV0.00
p4629
aV0.00
p4630
aV0.00
p4631
aV0.00
p4632
aV0.00
p4633
aV0.00
p4634
aV0.00
p4635
aV0.00
p4636
aV0.00
p4637
aV0.00
p4638
aV0.00
p4639
aV0.00
p4640
aV0.00
p4641
aV0.00
p4642
aV0.00
p4643
aV0.00
p4644
aV0.00
p4645
aV0.00
p4646
aV0.00
p4647
aV0.00
p4648
aV0.00
p4649
aV0.00
p4650
aV0.00
p4651
aV0.00
p4652
aV0.00
p4653
aV0.00
p4654
aV0.00
p4655
aV0.00
p4656
aV0.00
p4657
aV0.00
p4658
aV0.00
p4659
aV0.00
p4660
aV0.00
p4661
aV0.00
p4662
aV0.00
p4663
aV0.00
p4664
aV0.00
p4665
aV0.00
p4666
aV0.00
p4667
aV0.00
p4668
aV0.00
p4669
aV0.00
p4670
aV0.00
p4671
aV0.00
p4672
aV0.00
p4673
aV0.00
p4674
aV0.00
p4675
aV0.00
p4676
aV0.00
p4677
aV0.00
p4678
aV0.00
p4679
aV0.00
p4680
aV0.00
p4681
aV0.00
p4682
aV0.00
p4683
aV0.00
p4684
aV0.00
p4685
aV0.00
p4686
aV0.00
p4687
aV0.00
p4688
aV0.00
p4689
aV0.00
p4690
aV0.00
p4691
aV0.00
p4692
aVjanuary
p4693
aVfebruary
p4694
aVmarch
p4695
aVapril
p4696
aVmay
p4697
aVjune
p4698
aVjuly
p4699
aVaugust
p4700
aVseptember
p4701
aVoctober
p4702
aVnovember
p4703
aVdecember
p4704
atp4705
ba(lp4706
g17
(g18
(dp4707
g20
g21
(g22
(I0
tp4708
g24
tp4709
Rp4710
(I1
(L25L
tp4711
g31
I00
(lp4712
I1
aI2
aI3
aI4
aI5
aI6
aI7
aI8
aI9
aI10
aI11
aI12
aI13
aI14
aI15
aI16
aI17
aI18
aI19
aI20
aI21
aI22
aI23
aI24
ag113
atp4713
bsg43
Nstp4714
Rp4715
a(dp4716
g86
(dp4717
g88
g4380
sg89
(lp4718
(dp4719
g92
g93
(I0
I25
L1L
tp4720
Rp4721
sg96
g4402
sasstp4722
bsbsg450
g2
(g3
g4
Ntp4723
Rp4724
(dp4725
g8
g9
sg10
g11
sg12
g2
(g13
g4
Ntp4726
Rp4727
((lp4728
g17
(g18
(dp4729
g20
g21
(g22
(I0
tp4730
g24
tp4731
Rp4732
(I1
(L25L
tp4733
g31
I00
(lp4734
I1
aI2
aI3
aI4
aI5
aI6
aI7
aI8
aI9
aI10
aI11
aI12
aI13
aI14
aI15
aI16
aI17
aI18
aI19
aI20
aI21
aI22
aI23
aI24
ag113
atp4735
bsg43
Nstp4736
Rp4737
ag17
(g46
(dp4738
g20
g21
(g22
(I0
tp4739
g24
tp4740
Rp4741
(I1
(L12L
tp4742
g54
I00
S'\x00\x00\x00\x00\x00\x00\x00\x00\x01\x00\x00\x00\x00\x00\x00\x00\x02\x00\x00\x00\x00\x00\x00\x00\x03\x00\x00\x00\x00\x00\x00\x00\x04\x00\x00\x00\x00\x00\x00\x00\x05\x00\x00\x00\x00\x00\x00\x00\x06\x00\x00\x00\x00\x00\x00\x00\x07\x00\x00\x00\x00\x00\x00\x00\x08\x00\x00\x00\x00\x00\x00\x00\t\x00\x00\x00\x00\x00\x00\x00\n\x00\x00\x00\x00\x00\x00\x00\x0b\x00\x00\x00\x00\x00\x00\x00'
p4743
tp4744
bsg43
Nstp4745
Rp4746
a(lp4747
g21
(g22
(I0
tp4748
g24
tp4749
Rp4750
(I1
(L25L
L12L
tp4751
g31
I00
(lp4752
V0.00
p4753
aV0.00
p4754
aV0.00
p4755
aV0.00
p4756
aV0.00
p4757
aV0.00
p4758
aV0.00
p4759
aV0.00
p4760
aV0.00
p4761
aV0.00
p4762
aV0.00
p4763
aV0.00
p4764
aV0.00
p4765
aV0.00
p4766
aV0.00
p4767
aV0.00
p4768
aV0.00
p4769
aV0.00
p4770
aV0.00
p4771
aV0.00
p4772
aV0.00
p4773
aV0.00
p4774
aV0.00
p4775
aV0.00
p4776
aV0.00
p4777
aV0.00
p4778
aV0.00
p4779
aV0.00
p4780
aV0.00
p4781
aV0.00
p4782
aV0.00
p4783
aV0.00
p4784
aV0.00
p4785
aV0.00
p4786
aV0.00
p4787
aV0.00
p4788
aV0.00
p4789
aV0.00
p4790
aV0.00
p4791
aV0.00
p4792
aV0.00
p4793
aV0.00
p4794
aV0.00
p4795
aV0.00
p4796
aV0.00
p4797
aV0.00
p4798
aV0.00
p4799
aV0.00
p4800
aV0.00
p4801
aV0.00
p4802
aV0.00
p4803
aV0.00
p4804
aV0.00
p4805
aV0.00
p4806
aV0.00
p4807
aV0.00
p4808
aV0.00
p4809
aV0.00
p4810
aV0.00
p4811
aV0.00
p4812
aV0.00
p4813
aV0.00
p4814
aV0.00
p4815
aV0.04
p4816
aV3.25
p4817
aV0.00
p4818
aV0.00
p4819
aV0.00
p4820
aV0.00
p4821
aV0.00
p4822
aV0.00
p4823
aV0.00
p4824
aV0.00
p4825
aV0.00
p4826
aV2.45
p4827
aV11.76
p4828
aV12.85
p4829
aV12.11
p4830
aV14.98
p4831
aV12.07
p4832
aV9.61
p4833
aV4.85
p4834
aV0.00
p4835
aV0.00
p4836
aV1.02
p4837
aV14.07
p4838
aV14.50
p4839
aV13.77
p4840
aV12.94
p4841
aV12.58
p4842
aV12.57
p4843
aV12.58
p4844
aV13.25
p4845
aV12.96
p4846
aV13.06
p4847
aV2.57
p4848
aV14.62
p4849
aV15.12
p4850
aV16.52
p4851
aV18.25
p4852
aV17.69
p4853
aV17.43
p4854
aV17.47
p4855
aV17.44
p4856
aV18.64
p4857
aV17.01
p4858
aV14.39
p4859
aV15.55
p4860
aV18.11
p4861
aV19.32
p4862
aV18.66
p4863
aV18.12
p4864
aV17.53
p4865
aV17.43
p4866
aV17.66
p4867
aV17.49
p4868
aV24.10
p4869
aV16.65
p4870
aV16.42
p4871
aV19.70
p4872
aV18.32
p4873
aV18.97
p4874
aV18.32
p4875
aV17.89
p4876
aV17.43
p4877
aV20.55
p4878
aV18.21
p4879
aV17.77
p4880
aV18.73
p4881
aV16.42
p4882
aV16.11
p4883
aV19.60
p4884
aV17.66
p4885
aV18.43
p4886
aV20.81
p4887
aV12.55
p4888
aV12.06
p4889
aV12.06
p4890
aV13.80
p4891
aV13.53
p4892
aV12.88
p4893
aV11.49
p4894
aV14.48
p4895
aV18.88
p4896
aV18.52
p4897
aV13.00
p4898
aV12.53
p4899
aV12.47
p4900
aV12.06
p4901
aV12.09
p4902
aV14.91
p4903
aV15.11
p4904
aV13.43
p4905
aV11.47
p4906
aV16.99
p4907
aV13.51
p4908
aV12.56
p4909
aV12.78
p4910
aV12.47
p4911
aV12.56
p4912
aV12.06
p4913
aV12.16
p4914
aV17.12
p4915
aV16.20
p4916
aV14.29
p4917
aV16.81
p4918
aV11.41
p4919
aV18.49
p4920
aV28.69
p4921
aV18.18
p4922
aV12.40
p4923
aV12.43
p4924
aV17.43
p4925
aV12.43
p4926
aV19.22
p4927
aV17.41
p4928
aV15.05
p4929
aV27.33
p4930
aV27.16
p4931
aV29.09
p4932
aV28.33
p4933
aV28.50
p4934
aV25.58
p4935
aV14.48
p4936
aV22.43
p4937
aV22.94
p4938
aV27.68
p4939
aV26.38
p4940
aV24.04
p4941
aV22.38
p4942
aV25.79
p4943
aV28.84
p4944
aV6.93
p4945
aV23.83
p4946
aV23.05
p4947
aV22.93
p4948
aV22.43
p4949
aV22.83
p4950
aV28.04
p4951
aV25.46
p4952
aV23.86
p4953
aV6.88
p4954
aV3.72
p4955
aV0.66
p4956
aV0.00
p4957
aV1.55
p4958
aV6.91
p4959
aV21.12
p4960
aV6.65
p4961
aV6.74
p4962
aV14.41
p4963
aV15.15
p4964
aV4.76
p4965
aV0.48
p4966
aV0.00
p4967
aV0.00
p4968
aV0.00
p4969
aV0.00
p4970
aV0.00
p4971
aV0.22
p4972
aV0.00
p4973
aV8.96
p4974
aV9.29
p4975
aV0.45
p4976
aV0.00
p4977
aV0.00
p4978
aV0.00
p4979
aV0.00
p4980
aV0.00
p4981
aV0.00
p4982
aV0.00
p4983
aV0.00
p4984
aV0.00
p4985
aV0.00
p4986
aV0.00
p4987
aV0.00
p4988
aV0.00
p4989
aV0.00
p4990
aV0.00
p4991
aV0.00
p4992
aV0.00
p4993
aV0.00
p4994
aV0.00
p4995
aV0.00
p4996
aV0.00
p4997
aV0.00
p4998
aV0.00
p4999
aV0.00
p5000
aV0.00
p5001
aV0.00
p5002
aV0.00
p5003
aV0.00
p5004
aV0.00
p5005
aV0.00
p5006
aV0.00
p5007
aV0.00
p5008
aV0.00
p5009
aV0.00
p5010
aV0.00
p5011
aV0.00
p5012
aV0.00
p5013
aV0.00
p5014
aV0.00
p5015
aV0.00
p5016
aV0.00
p5017
aV0.00
p5018
aV0.00
p5019
aV0.00
p5020
aV0.00
p5021
aV0.00
p5022
aV0.00
p5023
aV0.00
p5024
aV0.00
p5025
aV0.00
p5026
aV0.00
p5027
aV0.00
p5028
aV0.00
p5029
aV0.00
p5030
aV0.00
p5031
aV0.00
p5032
aV0.00
p5033
aV0.00
p5034
aV0.00
p5035
aV0.00
p5036
aV0.00
p5037
aV0.00
p5038
aV0.00
p5039
aV0.00
p5040
aVjanuary
p5041
aVfebruary
p5042
aVmarch
p5043
aVapril
p5044
aVmay
p5045
aVjune
p5046
aVjuly
p5047
aVaugust
p5048
aVseptember
p5049
aVoctober
p5050
aVnovember
p5051
aVdecember
p5052
atp5053
ba(lp5054
g17
(g18
(dp5055
g20
g21
(g22
(I0
tp5056
g24
tp5057
Rp5058
(I1
(L25L
tp5059
g31
I00
(lp5060
I1
aI2
aI3
aI4
aI5
aI6
aI7
aI8
aI9
aI10
aI11
aI12
aI13
aI14
aI15
aI16
aI17
aI18
aI19
aI20
aI21
aI22
aI23
aI24
ag113
atp5061
bsg43
Nstp5062
Rp5063
a(dp5064
g86
(dp5065
g88
g4728
sg89
(lp5066
(dp5067
g92
g93
(I0
I25
L1L
tp5068
Rp5069
sg96
g4750
sasstp5070
bsbsg799
g2
(g3
g4
Ntp5071
Rp5072
(dp5073
g8
g9
sg10
g11
sg12
g2
(g13
g4
Ntp5074
Rp5075
((lp5076
g17
(g18
(dp5077
g20
g21
(g22
(I0
tp5078
g24
tp5079
Rp5080
(I1
(L25L
tp5081
g31
I00
(lp5082
I1
aI2
aI3
aI4
aI5
aI6
aI7
aI8
aI9
aI10
aI11
aI12
aI13
aI14
aI15
aI16
aI17
aI18
aI19
aI20
aI21
aI22
aI23
aI24
ag113
atp5083
bsg43
Nstp5084
Rp5085
ag17
(g46
(dp5086
g20
g21
(g22
(I0
tp5087
g24
tp5088
Rp5089
(I1
(L12L
tp5090
g54
I00
S'\x00\x00\x00\x00\x00\x00\x00\x00\x01\x00\x00\x00\x00\x00\x00\x00\x02\x00\x00\x00\x00\x00\x00\x00\x03\x00\x00\x00\x00\x00\x00\x00\x04\x00\x00\x00\x00\x00\x00\x00\x05\x00\x00\x00\x00\x00\x00\x00\x06\x00\x00\x00\x00\x00\x00\x00\x07\x00\x00\x00\x00\x00\x00\x00\x08\x00\x00\x00\x00\x00\x00\x00\t\x00\x00\x00\x00\x00\x00\x00\n\x00\x00\x00\x00\x00\x00\x00\x0b\x00\x00\x00\x00\x00\x00\x00'
p5091
tp5092
bsg43
Nstp5093
Rp5094
a(lp5095
g21
(g22
(I0
tp5096
g24
tp5097
Rp5098
(I1
(L25L
L12L
tp5099
g31
I00
(lp5100
V0.00
p5101
aV0.00
p5102
aV0.00
p5103
aV0.00
p5104
aV0.00
p5105
aV0.00
p5106
aV0.00
p5107
aV0.00
p5108
aV0.00
p5109
aV0.00
p5110
aV0.00
p5111
aV0.00
p5112
aV0.00
p5113
aV0.00
p5114
aV0.00
p5115
aV0.00
p5116
aV0.00
p5117
aV0.00
p5118
aV0.00
p5119
aV0.00
p5120
aV0.00
p5121
aV0.00
p5122
aV0.00
p5123
aV0.00
p5124
aV0.00
p5125
aV0.00
p5126
aV0.00
p5127
aV0.00
p5128
aV0.00
p5129
aV0.00
p5130
aV0.00
p5131
aV0.00
p5132
aV0.00
p5133
aV0.00
p5134
aV0.00
p5135
aV0.00
p5136
aV0.00
p5137
aV0.00
p5138
aV0.00
p5139
aV0.00
p5140
aV0.00
p5141
aV0.00
p5142
aV0.00
p5143
aV0.00
p5144
aV0.00
p5145
aV0.00
p5146
aV0.00
p5147
aV0.00
p5148
aV0.00
p5149
aV0.00
p5150
aV0.00
p5151
aV0.00
p5152
aV0.00
p5153
aV0.00
p5154
aV0.00
p5155
aV0.00
p5156
aV0.00
p5157
aV0.00
p5158
aV0.00
p5159
aV0.00
p5160
aV0.00
p5161
aV0.00
p5162
aV0.00
p5163
aV0.04
p5164
aV3.25
p5165
aV0.00
p5166
aV0.00
p5167
aV0.00
p5168
aV0.00
p5169
aV0.00
p5170
aV0.00
p5171
aV0.00
p5172
aV0.00
p5173
aV0.00
p5174
aV2.45
p5175
aV11.76
p5176
aV16.97
p5177
aV16.12
p5178
aV14.98
p5179
aV14.46
p5180
aV9.61
p5181
aV4.85
p5182
aV0.00
p5183
aV0.00
p5184
aV1.02
p5185
aV14.07
p5186
aV28.08
p5187
aV36.87
p5188
aV43.56
p5189
aV44.71
p5190
aV40.54
p5191
aV44.02
p5192
aV37.24
p5193
aV37.96
p5194
aV18.80
p5195
aV2.57
p5196
aV40.66
p5197
aV50.09
p5198
aV54.02
p5199
aV60.23
p5200
aV68.77
p5201
aV68.76
p5202
aV64.91
p5203
aV69.24
p5204
aV65.53
p5205
aV60.21
p5206
aV44.45
p5207
aV38.67
p5208
aV50.29
p5209
aV69.69
p5210
aV69.58
p5211
aV69.58
p5212
aV69.58
p5213
aV76.96
p5214
aV80.23
p5215
aV82.87
p5216
aV78.45
p5217
aV69.58
p5218
aV60.72
p5219
aV50.50
p5220
aV60.65
p5221
aV74.42
p5222
aV69.58
p5223
aV69.58
p5224
aV70.49
p5225
aV86.48
p5226
aV85.85
p5227
aV89.99
p5228
aV83.49
p5229
aV69.58
p5230
aV73.76
p5231
aV68.29
p5232
aV66.47
p5233
aV85.46
p5234
aV74.17
p5235
aV63.09
p5236
aV63.07
p5237
aV84.82
p5238
aV88.98
p5239
aV92.42
p5240
aV82.99
p5241
aV73.74
p5242
aV79.91
p5243
aV71.60
p5244
aV65.34
p5245
aV63.07
p5246
aV85.46
p5247
aV76.62
p5248
aV85.71
p5249
aV78.25
p5250
aV87.06
p5251
aV87.50
p5252
aV77.65
p5253
aV84.33
p5254
aV84.64
p5255
aV59.20
p5256
aV72.83
p5257
aV69.57
p5258
aV80.69
p5259
aV69.57
p5260
aV70.38
p5261
aV79.92
p5262
aV83.40
p5263
aV87.20
p5264
aV77.52
p5265
aV81.31
p5266
aV70.63
p5267
aV73.53
p5268
aV67.58
p5269
aV81.66
p5270
aV75.15
p5271
aV76.92
p5272
aV77.18
p5273
aV69.69
p5274
aV79.35
p5275
aV81.47
p5276
aV68.45
p5277
aV69.97
p5278
aV76.13
p5279
aV77.84
p5280
aV64.62
p5281
aV74.00
p5282
aV60.55
p5283
aV64.63
p5284
aV61.45
p5285
aV64.68
p5286
aV63.97
p5287
aV69.38
p5288
aV56.36
p5289
aV48.90
p5290
aV55.26
p5291
aV53.83
p5292
aV6.93
p5293
aV42.86
p5294
aV41.67
p5295
aV37.93
p5296
aV36.38
p5297
aV38.58
p5298
aV42.13
p5299
aV46.12
p5300
aV37.04
p5301
aV20.46
p5302
aV3.72
p5303
aV0.66
p5304
aV0.00
p5305
aV1.55
p5306
aV6.91
p5307
aV21.12
p5308
aV18.93
p5309
aV20.04
p5310
aV20.93
p5311
aV20.61
p5312
aV4.76
p5313
aV0.48
p5314
aV0.00
p5315
aV0.00
p5316
aV0.00
p5317
aV0.00
p5318
aV0.00
p5319
aV0.22
p5320
aV0.00
p5321
aV8.96
p5322
aV9.29
p5323
aV0.45
p5324
aV0.00
p5325
aV0.00
p5326
aV0.00
p5327
aV0.00
p5328
aV0.00
p5329
aV0.00
p5330
aV0.00
p5331
aV0.00
p5332
aV0.00
p5333
aV0.00
p5334
aV0.00
p5335
aV0.00
p5336
aV0.00
p5337
aV0.00
p5338
aV0.00
p5339
aV0.00
p5340
aV0.00
p5341
aV0.00
p5342
aV0.00
p5343
aV0.00
p5344
aV0.00
p5345
aV0.00
p5346
aV0.00
p5347
aV0.00
p5348
aV0.00
p5349
aV0.00
p5350
aV0.00
p5351
aV0.00
p5352
aV0.00
p5353
aV0.00
p5354
aV0.00
p5355
aV0.00
p5356
aV0.00
p5357
aV0.00
p5358
aV0.00
p5359
aV0.00
p5360
aV0.00
p5361
aV0.00
p5362
aV0.00
p5363
aV0.00
p5364
aV0.00
p5365
aV0.00
p5366
aV0.00
p5367
aV0.00
p5368
aV0.00
p5369
aV0.00
p5370
aV0.00
p5371
aV0.00
p5372
aV0.00
p5373
aV0.00
p5374
aV0.00
p5375
aV0.00
p5376
aV0.00
p5377
aV0.00
p5378
aV0.00
p5379
aV0.00
p5380
aV0.00
p5381
aV0.00
p5382
aV0.00
p5383
aV0.00
p5384
aV0.00
p5385
aV0.00
p5386
aV0.00
p5387
aV0.00
p5388
aVjanuary
p5389
aVfebruary
p5390
aVmarch
p5391
aVapril
p5392
aVmay
p5393
aVjune
p5394
aVjuly
p5395
aVaugust
p5396
aVseptember
p5397
aVoctober
p5398
aVnovember
p5399
aVdecember
p5400
atp5401
ba(lp5402
g17
(g18
(dp5403
g20
g21
(g22
(I0
tp5404
g24
tp5405
Rp5406
(I1
(L25L
tp5407
g31
I00
(lp5408
I1
aI2
aI3
aI4
aI5
aI6
aI7
aI8
aI9
aI10
aI11
aI12
aI13
aI14
aI15
aI16
aI17
aI18
aI19
aI20
aI21
aI22
aI23
aI24
ag113
atp5409
bsg43
Nstp5410
Rp5411
a(dp5412
g86
(dp5413
g88
g5076
sg89
(lp5414
(dp5415
g92
g93
(I0
I25
L1L
tp5416
Rp5417
sg96
g5098
sasstp5418
bsbssg1167
I00
s.